Archive member included because of file (symbol)

/Applications/MapleIDE.app/Contents/Resources/Java/hardware/tools/arm/bin/../lib/gcc/arm-none-eabi/4.4.1/thumb2/libgcc.a(_arm_addsubdf3.o)
                              build/../../libmaple/wirish/Print.o (__aeabi_dsub)
/Applications/MapleIDE.app/Contents/Resources/Java/hardware/tools/arm/bin/../lib/gcc/arm-none-eabi/4.4.1/thumb2/libgcc.a(_arm_muldivdf3.o)
                              build/../../libmaple/wirish/Print.o (__aeabi_dmul)
/Applications/MapleIDE.app/Contents/Resources/Java/hardware/tools/arm/bin/../lib/gcc/arm-none-eabi/4.4.1/thumb2/libgcc.a(_arm_cmpdf2.o)
                              build/../../libmaple/wirish/Print.o (__aeabi_dcmplt)
/Applications/MapleIDE.app/Contents/Resources/Java/hardware/tools/arm/bin/../lib/gcc/arm-none-eabi/4.4.1/thumb2/libgcc.a(_arm_fixdfsi.o)
                              build/../../libmaple/wirish/Print.o (__aeabi_d2iz)
/Applications/MapleIDE.app/Contents/Resources/Java/hardware/tools/arm/bin/../lib/gcc/arm-none-eabi/4.4.1/thumb2/libgcc.a(_aeabi_ldivmod.o)
                              build/main.o (__aeabi_ldivmod)
/Applications/MapleIDE.app/Contents/Resources/Java/hardware/tools/arm/bin/../lib/gcc/arm-none-eabi/4.4.1/thumb2/libgcc.a(_aeabi_uldivmod.o)
                              build/../../libmaple/wirish/Print.o (__aeabi_uldivmod)
/Applications/MapleIDE.app/Contents/Resources/Java/hardware/tools/arm/bin/../lib/gcc/arm-none-eabi/4.4.1/thumb2/libgcc.a(_fixdfdi.o)
                              build/../../libmaple/wirish/Print.o (__aeabi_d2lz)
/Applications/MapleIDE.app/Contents/Resources/Java/hardware/tools/arm/bin/../lib/gcc/arm-none-eabi/4.4.1/thumb2/libgcc.a(_fixunsdfdi.o)
                              /Applications/MapleIDE.app/Contents/Resources/Java/hardware/tools/arm/bin/../lib/gcc/arm-none-eabi/4.4.1/thumb2/libgcc.a(_fixdfdi.o) (__aeabi_d2ulz)
/Applications/MapleIDE.app/Contents/Resources/Java/hardware/tools/arm/bin/../lib/gcc/arm-none-eabi/4.4.1/thumb2/libgcc.a(bpabi.o)
                              /Applications/MapleIDE.app/Contents/Resources/Java/hardware/tools/arm/bin/../lib/gcc/arm-none-eabi/4.4.1/thumb2/libgcc.a(_aeabi_uldivmod.o) (__gnu_uldivmod_helper)
/Applications/MapleIDE.app/Contents/Resources/Java/hardware/tools/arm/bin/../lib/gcc/arm-none-eabi/4.4.1/thumb2/libgcc.a(_dvmd_tls.o)
                              /Applications/MapleIDE.app/Contents/Resources/Java/hardware/tools/arm/bin/../lib/gcc/arm-none-eabi/4.4.1/thumb2/libgcc.a(_aeabi_ldivmod.o) (__aeabi_ldiv0)
/Applications/MapleIDE.app/Contents/Resources/Java/hardware/tools/arm/bin/../lib/gcc/arm-none-eabi/4.4.1/thumb2/libgcc.a(_arm_fixunsdfsi.o)
                              /Applications/MapleIDE.app/Contents/Resources/Java/hardware/tools/arm/bin/../lib/gcc/arm-none-eabi/4.4.1/thumb2/libgcc.a(_fixunsdfdi.o) (__aeabi_d2uiz)
/Applications/MapleIDE.app/Contents/Resources/Java/hardware/tools/arm/bin/../lib/gcc/arm-none-eabi/4.4.1/thumb2/libgcc.a(_divdi3.o)
                              /Applications/MapleIDE.app/Contents/Resources/Java/hardware/tools/arm/bin/../lib/gcc/arm-none-eabi/4.4.1/thumb2/libgcc.a(bpabi.o) (__divdi3)
/Applications/MapleIDE.app/Contents/Resources/Java/hardware/tools/arm/bin/../lib/gcc/arm-none-eabi/4.4.1/thumb2/libgcc.a(_udivdi3.o)
                              /Applications/MapleIDE.app/Contents/Resources/Java/hardware/tools/arm/bin/../lib/gcc/arm-none-eabi/4.4.1/thumb2/libgcc.a(bpabi.o) (__udivdi3)
/Applications/MapleIDE.app/Contents/Resources/Java/hardware/tools/arm/bin/../lib/gcc/arm-none-eabi/4.4.1/thumb2/libgcc.a(_udivsi3.o)
                              /Applications/MapleIDE.app/Contents/Resources/Java/hardware/tools/arm/bin/../lib/gcc/arm-none-eabi/4.4.1/thumb2/libgcc.a(_divdi3.o) (__aeabi_uidiv)
/Applications/MapleIDE.app/Contents/Resources/Java/hardware/tools/arm/bin/../lib/gcc/arm-none-eabi/4.4.1/../../../../arm-none-eabi/lib/thumb2/libc.a(lib_a-atoi.o)
                              build/main.o (atoi)
/Applications/MapleIDE.app/Contents/Resources/Java/hardware/tools/arm/bin/../lib/gcc/arm-none-eabi/4.4.1/../../../../arm-none-eabi/lib/thumb2/libc.a(lib_a-atoll.o)
                              build/main.o (atoll)
/Applications/MapleIDE.app/Contents/Resources/Java/hardware/tools/arm/bin/../lib/gcc/arm-none-eabi/4.4.1/../../../../arm-none-eabi/lib/thumb2/libc.a(lib_a-errno.o)
                              build/../../libmaple/libmaple/syscalls.o (__errno)
/Applications/MapleIDE.app/Contents/Resources/Java/hardware/tools/arm/bin/../lib/gcc/arm-none-eabi/4.4.1/../../../../arm-none-eabi/lib/thumb2/libc.a(lib_a-impure.o)
                              /Applications/MapleIDE.app/Contents/Resources/Java/hardware/tools/arm/bin/../lib/gcc/arm-none-eabi/4.4.1/../../../../arm-none-eabi/lib/thumb2/libc.a(lib_a-errno.o) (_impure_ptr)
/Applications/MapleIDE.app/Contents/Resources/Java/hardware/tools/arm/bin/../lib/gcc/arm-none-eabi/4.4.1/../../../../arm-none-eabi/lib/thumb2/libc.a(lib_a-memcmp.o)
                              build/../../libmaple/libraries/SDfat/SdFile.o (memcmp)
/Applications/MapleIDE.app/Contents/Resources/Java/hardware/tools/arm/bin/../lib/gcc/arm-none-eabi/4.4.1/../../../../arm-none-eabi/lib/thumb2/libc.a(lib_a-memcpy.o)
                              build/../../libmaple/libraries/SDfat/SdFile.o (memcpy)
/Applications/MapleIDE.app/Contents/Resources/Java/hardware/tools/arm/bin/../lib/gcc/arm-none-eabi/4.4.1/../../../../arm-none-eabi/lib/thumb2/libc.a(lib_a-memset.o)
                              build/../../libmaple/libraries/SDfat/SdFile.o (memset)
/Applications/MapleIDE.app/Contents/Resources/Java/hardware/tools/arm/bin/../lib/gcc/arm-none-eabi/4.4.1/../../../../arm-none-eabi/lib/thumb2/libc.a(lib_a-rand.o)
                              build/../../libmaple/wirish/wirish_math.o (rand)
/Applications/MapleIDE.app/Contents/Resources/Java/hardware/tools/arm/bin/../lib/gcc/arm-none-eabi/4.4.1/../../../../arm-none-eabi/lib/thumb2/libc.a(lib_a-snprintf.o)
                              build/main.o (snprintf)
/Applications/MapleIDE.app/Contents/Resources/Java/hardware/tools/arm/bin/../lib/gcc/arm-none-eabi/4.4.1/../../../../arm-none-eabi/lib/thumb2/libc.a(lib_a-sprintf.o)
                              build/main.o (sprintf)
/Applications/MapleIDE.app/Contents/Resources/Java/hardware/tools/arm/bin/../lib/gcc/arm-none-eabi/4.4.1/../../../../arm-none-eabi/lib/thumb2/libc.a(lib_a-strchr.o)
                              build/main.o (strchr)
/Applications/MapleIDE.app/Contents/Resources/Java/hardware/tools/arm/bin/../lib/gcc/arm-none-eabi/4.4.1/../../../../arm-none-eabi/lib/thumb2/libc.a(lib_a-strcpy.o)
                              build/main.o (strcpy)
/Applications/MapleIDE.app/Contents/Resources/Java/hardware/tools/arm/bin/../lib/gcc/arm-none-eabi/4.4.1/../../../../arm-none-eabi/lib/thumb2/libc.a(lib_a-strlen.o)
                              build/../../libmaple/wirish/usb_serial.o (strlen)
/Applications/MapleIDE.app/Contents/Resources/Java/hardware/tools/arm/bin/../lib/gcc/arm-none-eabi/4.4.1/../../../../arm-none-eabi/lib/thumb2/libc.a(lib_a-strncmp.o)
                              build/main.o (strncmp)
/Applications/MapleIDE.app/Contents/Resources/Java/hardware/tools/arm/bin/../lib/gcc/arm-none-eabi/4.4.1/../../../../arm-none-eabi/lib/thumb2/libc.a(lib_a-strncpy.o)
                              build/main.o (strncpy)
/Applications/MapleIDE.app/Contents/Resources/Java/hardware/tools/arm/bin/../lib/gcc/arm-none-eabi/4.4.1/../../../../arm-none-eabi/lib/thumb2/libc.a(lib_a-strtol.o)
                              /Applications/MapleIDE.app/Contents/Resources/Java/hardware/tools/arm/bin/../lib/gcc/arm-none-eabi/4.4.1/../../../../arm-none-eabi/lib/thumb2/libc.a(lib_a-atoi.o) (_strtol_r)
/Applications/MapleIDE.app/Contents/Resources/Java/hardware/tools/arm/bin/../lib/gcc/arm-none-eabi/4.4.1/../../../../arm-none-eabi/lib/thumb2/libc.a(lib_a-strtoll.o)
                              /Applications/MapleIDE.app/Contents/Resources/Java/hardware/tools/arm/bin/../lib/gcc/arm-none-eabi/4.4.1/../../../../arm-none-eabi/lib/thumb2/libc.a(lib_a-atoll.o) (strtoll)
/Applications/MapleIDE.app/Contents/Resources/Java/hardware/tools/arm/bin/../lib/gcc/arm-none-eabi/4.4.1/../../../../arm-none-eabi/lib/thumb2/libc.a(lib_a-strtoll_r.o)
                              /Applications/MapleIDE.app/Contents/Resources/Java/hardware/tools/arm/bin/../lib/gcc/arm-none-eabi/4.4.1/../../../../arm-none-eabi/lib/thumb2/libc.a(lib_a-atoll.o) (_strtoll_r)
/Applications/MapleIDE.app/Contents/Resources/Java/hardware/tools/arm/bin/../lib/gcc/arm-none-eabi/4.4.1/../../../../arm-none-eabi/lib/thumb2/libc.a(lib_a-svfprintf.o)
                              /Applications/MapleIDE.app/Contents/Resources/Java/hardware/tools/arm/bin/../lib/gcc/arm-none-eabi/4.4.1/../../../../arm-none-eabi/lib/thumb2/libc.a(lib_a-snprintf.o) (_svfprintf_r)
/Applications/MapleIDE.app/Contents/Resources/Java/hardware/tools/arm/bin/../lib/gcc/arm-none-eabi/4.4.1/../../../../arm-none-eabi/lib/thumb2/libc.a(lib_a-toupper.o)
                              build/main.o (toupper)
/Applications/MapleIDE.app/Contents/Resources/Java/hardware/tools/arm/bin/../lib/gcc/arm-none-eabi/4.4.1/../../../../arm-none-eabi/lib/thumb2/libc.a(lib_a-vsnprintf.o)
                              build/main.o (vsnprintf)
/Applications/MapleIDE.app/Contents/Resources/Java/hardware/tools/arm/bin/../lib/gcc/arm-none-eabi/4.4.1/../../../../arm-none-eabi/lib/thumb2/libc.a(lib_a-ctype_.o)
                              /Applications/MapleIDE.app/Contents/Resources/Java/hardware/tools/arm/bin/../lib/gcc/arm-none-eabi/4.4.1/../../../../arm-none-eabi/lib/thumb2/libc.a(lib_a-strtol.o) (__ctype_ptr__)
/Applications/MapleIDE.app/Contents/Resources/Java/hardware/tools/arm/bin/../lib/gcc/arm-none-eabi/4.4.1/../../../../arm-none-eabi/lib/thumb2/libc.a(lib_a-dtoa.o)
                              /Applications/MapleIDE.app/Contents/Resources/Java/hardware/tools/arm/bin/../lib/gcc/arm-none-eabi/4.4.1/../../../../arm-none-eabi/lib/thumb2/libc.a(lib_a-svfprintf.o) (_dtoa_r)
/Applications/MapleIDE.app/Contents/Resources/Java/hardware/tools/arm/bin/../lib/gcc/arm-none-eabi/4.4.1/../../../../arm-none-eabi/lib/thumb2/libc.a(lib_a-freer.o)
                              /Applications/MapleIDE.app/Contents/Resources/Java/hardware/tools/arm/bin/../lib/gcc/arm-none-eabi/4.4.1/../../../../arm-none-eabi/lib/thumb2/libc.a(lib_a-svfprintf.o) (_free_r)
/Applications/MapleIDE.app/Contents/Resources/Java/hardware/tools/arm/bin/../lib/gcc/arm-none-eabi/4.4.1/../../../../arm-none-eabi/lib/thumb2/libc.a(lib_a-locale.o)
                              /Applications/MapleIDE.app/Contents/Resources/Java/hardware/tools/arm/bin/../lib/gcc/arm-none-eabi/4.4.1/../../../../arm-none-eabi/lib/thumb2/libc.a(lib_a-svfprintf.o) (_localeconv_r)
/Applications/MapleIDE.app/Contents/Resources/Java/hardware/tools/arm/bin/../lib/gcc/arm-none-eabi/4.4.1/../../../../arm-none-eabi/lib/thumb2/libc.a(lib_a-malloc.o)
                              /Applications/MapleIDE.app/Contents/Resources/Java/hardware/tools/arm/bin/../lib/gcc/arm-none-eabi/4.4.1/../../../../arm-none-eabi/lib/thumb2/libc.a(lib_a-rand.o) (malloc)
/Applications/MapleIDE.app/Contents/Resources/Java/hardware/tools/arm/bin/../lib/gcc/arm-none-eabi/4.4.1/../../../../arm-none-eabi/lib/thumb2/libc.a(lib_a-mallocr.o)
                              /Applications/MapleIDE.app/Contents/Resources/Java/hardware/tools/arm/bin/../lib/gcc/arm-none-eabi/4.4.1/../../../../arm-none-eabi/lib/thumb2/libc.a(lib_a-svfprintf.o) (_malloc_r)
/Applications/MapleIDE.app/Contents/Resources/Java/hardware/tools/arm/bin/../lib/gcc/arm-none-eabi/4.4.1/../../../../arm-none-eabi/lib/thumb2/libc.a(lib_a-memchr.o)
                              /Applications/MapleIDE.app/Contents/Resources/Java/hardware/tools/arm/bin/../lib/gcc/arm-none-eabi/4.4.1/../../../../arm-none-eabi/lib/thumb2/libc.a(lib_a-svfprintf.o) (memchr)
/Applications/MapleIDE.app/Contents/Resources/Java/hardware/tools/arm/bin/../lib/gcc/arm-none-eabi/4.4.1/../../../../arm-none-eabi/lib/thumb2/libc.a(lib_a-memmove.o)
                              /Applications/MapleIDE.app/Contents/Resources/Java/hardware/tools/arm/bin/../lib/gcc/arm-none-eabi/4.4.1/../../../../arm-none-eabi/lib/thumb2/libc.a(lib_a-svfprintf.o) (memmove)
/Applications/MapleIDE.app/Contents/Resources/Java/hardware/tools/arm/bin/../lib/gcc/arm-none-eabi/4.4.1/../../../../arm-none-eabi/lib/thumb2/libc.a(lib_a-mlock.o)
                              /Applications/MapleIDE.app/Contents/Resources/Java/hardware/tools/arm/bin/../lib/gcc/arm-none-eabi/4.4.1/../../../../arm-none-eabi/lib/thumb2/libc.a(lib_a-freer.o) (__malloc_lock)
/Applications/MapleIDE.app/Contents/Resources/Java/hardware/tools/arm/bin/../lib/gcc/arm-none-eabi/4.4.1/../../../../arm-none-eabi/lib/thumb2/libc.a(lib_a-mprec.o)
                              /Applications/MapleIDE.app/Contents/Resources/Java/hardware/tools/arm/bin/../lib/gcc/arm-none-eabi/4.4.1/../../../../arm-none-eabi/lib/thumb2/libc.a(lib_a-dtoa.o) (__hi0bits)
/Applications/MapleIDE.app/Contents/Resources/Java/hardware/tools/arm/bin/../lib/gcc/arm-none-eabi/4.4.1/../../../../arm-none-eabi/lib/thumb2/libc.a(lib_a-reallocr.o)
                              /Applications/MapleIDE.app/Contents/Resources/Java/hardware/tools/arm/bin/../lib/gcc/arm-none-eabi/4.4.1/../../../../arm-none-eabi/lib/thumb2/libc.a(lib_a-svfprintf.o) (_realloc_r)
/Applications/MapleIDE.app/Contents/Resources/Java/hardware/tools/arm/bin/../lib/gcc/arm-none-eabi/4.4.1/../../../../arm-none-eabi/lib/thumb2/libc.a(lib_a-s_isinfd.o)
                              /Applications/MapleIDE.app/Contents/Resources/Java/hardware/tools/arm/bin/../lib/gcc/arm-none-eabi/4.4.1/../../../../arm-none-eabi/lib/thumb2/libc.a(lib_a-svfprintf.o) (__isinfd)
/Applications/MapleIDE.app/Contents/Resources/Java/hardware/tools/arm/bin/../lib/gcc/arm-none-eabi/4.4.1/../../../../arm-none-eabi/lib/thumb2/libc.a(lib_a-s_isnand.o)
                              /Applications/MapleIDE.app/Contents/Resources/Java/hardware/tools/arm/bin/../lib/gcc/arm-none-eabi/4.4.1/../../../../arm-none-eabi/lib/thumb2/libc.a(lib_a-svfprintf.o) (__isnand)
/Applications/MapleIDE.app/Contents/Resources/Java/hardware/tools/arm/bin/../lib/gcc/arm-none-eabi/4.4.1/../../../../arm-none-eabi/lib/thumb2/libc.a(lib_a-sbrkr.o)
                              /Applications/MapleIDE.app/Contents/Resources/Java/hardware/tools/arm/bin/../lib/gcc/arm-none-eabi/4.4.1/../../../../arm-none-eabi/lib/thumb2/libc.a(lib_a-freer.o) (_sbrk_r)
/Applications/MapleIDE.app/Contents/Resources/Java/hardware/tools/arm/bin/../lib/gcc/arm-none-eabi/4.4.1/../../../../arm-none-eabi/lib/thumb2/libc.a(lib_a-strcmp.o)
                              /Applications/MapleIDE.app/Contents/Resources/Java/hardware/tools/arm/bin/../lib/gcc/arm-none-eabi/4.4.1/../../../../arm-none-eabi/lib/thumb2/libc.a(lib_a-locale.o) (strcmp)
/Applications/MapleIDE.app/Contents/Resources/Java/hardware/tools/arm/bin/../lib/gcc/arm-none-eabi/4.4.1/../../../../arm-none-eabi/lib/thumb2/libc.a(lib_a-callocr.o)
                              /Applications/MapleIDE.app/Contents/Resources/Java/hardware/tools/arm/bin/../lib/gcc/arm-none-eabi/4.4.1/../../../../arm-none-eabi/lib/thumb2/libc.a(lib_a-mprec.o) (_calloc_r)
/Applications/MapleIDE.app/Contents/Resources/Java/hardware/tools/arm/bin/../lib/gcc/arm-none-eabi/4.4.1/../../../../arm-none-eabi/lib/thumb2/libc.a(lib_a-reent.o)
                              /Applications/MapleIDE.app/Contents/Resources/Java/hardware/tools/arm/bin/../lib/gcc/arm-none-eabi/4.4.1/../../../../arm-none-eabi/lib/thumb2/libc.a(lib_a-sbrkr.o) (errno)
/Applications/MapleIDE.app/Contents/Resources/Java/hardware/tools/arm/bin/../lib/gcc/arm-none-eabi/4.4.1/thumb2/libgcc.a(_divsi3.o)
                              /Applications/MapleIDE.app/Contents/Resources/Java/hardware/tools/arm/bin/../lib/gcc/arm-none-eabi/4.4.1/../../../../arm-none-eabi/lib/thumb2/libc.a(lib_a-svfprintf.o) (__aeabi_idiv)
../../libmaple/support/ld/libcs3_stm32_med_density.a(stm32_vector_table.o)
                              (__cs3_stm32_vector_table)
../../libmaple/support/ld/libcs3_stm32_med_density.a(stm32_isrs.o)
                              (__stm32reservedexception7)
../../libmaple/support/ld/libcs3_stm32_med_density.a(start.o)
                              (_start)
../../libmaple/support/ld/libcs3_stm32_med_density.a(start_c.o)
                              (__cs3_start_c)
/Applications/MapleIDE.app/Contents/Resources/Java/hardware/tools/arm/bin/../lib/gcc/arm-none-eabi/4.4.1/../../../../arm-none-eabi/lib/thumb2/libc.a(lib_a-init.o)
                              ../../libmaple/support/ld/libcs3_stm32_med_density.a(start_c.o) (__libc_init_array)

Allocating common symbols
Common symbol       size              file

SaveRState          0x2               build/../../libmaple/libmaple/usb/usb.o
SaveState           0x2               build/../../libmaple/libmaple/usb/usb_lib/usb_init.o
errno               0x4               /Applications/MapleIDE.app/Contents/Resources/Java/hardware/tools/arm/bin/../lib/gcc/arm-none-eabi/4.4.1/../../../../arm-none-eabi/lib/thumb2/libc.a(lib_a-reent.o)
vcomBufferRx        0xc0              build/../../libmaple/libmaple/usb/usb_cdcacm.o
pProperty           0x4               build/../../libmaple/libmaple/usb/usb_lib/usb_init.o
EPindex             0x1               build/../../libmaple/libmaple/usb/usb_lib/usb_init.o
SaveTState          0x2               build/../../libmaple/libmaple/usb/usb.o
systick_uptime_millis
                    0x4               build/../../libmaple/libmaple/systick.o
Device_Info         0x1c              build/../../libmaple/libmaple/usb/usb_lib/usb_init.o
pUser_Standard_Requests
                    0x4               build/../../libmaple/libmaple/usb/usb_lib/usb_init.o
StatusInfo          0x2               build/../../libmaple/libmaple/usb/usb_lib/usb_core.o
pInformation        0x4               build/../../libmaple/libmaple/usb/usb_lib/usb_init.o
ResumeS             0x2               build/../../libmaple/libmaple/usb/usb.o
wInterrupt_Mask     0x2               build/../../libmaple/libmaple/usb/usb_lib/usb_init.o

Discarded input sections

 .text          0x00000000        0x0 /Applications/MapleIDE.app/Contents/Resources/Java/hardware/tools/arm/bin/../lib/gcc/arm-none-eabi/4.4.1/thumb2/crti.o
 .data          0x00000000        0x0 /Applications/MapleIDE.app/Contents/Resources/Java/hardware/tools/arm/bin/../lib/gcc/arm-none-eabi/4.4.1/thumb2/crti.o
 .bss           0x00000000        0x0 /Applications/MapleIDE.app/Contents/Resources/Java/hardware/tools/arm/bin/../lib/gcc/arm-none-eabi/4.4.1/thumb2/crti.o
 .data          0x00000000        0x4 /Applications/MapleIDE.app/Contents/Resources/Java/hardware/tools/arm/bin/../lib/gcc/arm-none-eabi/4.4.1/thumb2/crtbegin.o
 .text          0x00000000        0x0 build/../../libmaple/libmaple/adc.o
 .data          0x00000000        0x0 build/../../libmaple/libmaple/adc.o
 .bss           0x00000000        0x0 build/../../libmaple/libmaple/adc.o
 .text.adc_read
                0x00000000       0x22 build/../../libmaple/libmaple/adc.o
 .text          0x00000000        0x0 build/../../libmaple/libmaple/bkp.o
 .data          0x00000000        0x0 build/../../libmaple/libmaple/bkp.o
 .bss           0x00000000        0x0 build/../../libmaple/libmaple/bkp.o
 .text.data_register
                0x00000000       0x18 build/../../libmaple/libmaple/bkp.o
 .text.bkp_write
                0x00000000       0x24 build/../../libmaple/libmaple/bkp.o
 .text.bkp_read
                0x00000000       0x28 build/../../libmaple/libmaple/bkp.o
 .text.bkp_init
                0x00000000       0x18 build/../../libmaple/libmaple/bkp.o
 .text.T.4      0x00000000        0x8 build/../../libmaple/libmaple/bkp.o
 .text.bkp_disable_writes
                0x00000000        0xc build/../../libmaple/libmaple/bkp.o
 .text.bkp_enable_writes
                0x00000000        0xc build/../../libmaple/libmaple/bkp.o
 .data.bkp      0x00000000        0x4 build/../../libmaple/libmaple/bkp.o
 .data.BKP      0x00000000        0x4 build/../../libmaple/libmaple/bkp.o
 .rodata.str1.1
                0x00000000       0x20 build/../../libmaple/libmaple/bkp.o
 .text          0x00000000        0x0 build/../../libmaple/libmaple/dac.o
 .data          0x00000000        0x0 build/../../libmaple/libmaple/dac.o
 .bss           0x00000000        0x0 build/../../libmaple/libmaple/dac.o
 .text          0x00000000        0x0 build/../../libmaple/libmaple/dma.o
 .data          0x00000000        0x0 build/../../libmaple/libmaple/dma.o
 .bss           0x00000000        0x0 build/../../libmaple/libmaple/dma.o
 .text.dma_channel_regs
                0x00000000        0xe build/../../libmaple/libmaple/dma.o
 .text.dma_is_channel_enabled
                0x00000000        0xe build/../../libmaple/libmaple/dma.o
 .text.dma_attach_interrupt
                0x00000000       0x28 build/../../libmaple/libmaple/dma.o
 .text.dma_detach_interrupt
                0x00000000       0x1a build/../../libmaple/libmaple/dma.o
 .text.dma_set_per_addr
                0x00000000       0x30 build/../../libmaple/libmaple/dma.o
 .text.dma_set_mem_addr
                0x00000000       0x30 build/../../libmaple/libmaple/dma.o
 .text.dma_set_priority
                0x00000000       0x34 build/../../libmaple/libmaple/dma.o
 .text.dma_set_num_transfers
                0x00000000       0x2c build/../../libmaple/libmaple/dma.o
 .text.dma_get_irq_cause
                0x00000000       0x60 build/../../libmaple/libmaple/dma.o
 .text.dma_init
                0x00000000        0x6 build/../../libmaple/libmaple/dma.o
 .text.T.23     0x00000000        0xa build/../../libmaple/libmaple/dma.o
 .text.dma_disable
                0x00000000       0x10 build/../../libmaple/libmaple/dma.o
 .text.dma_setup_transfer
                0x00000000       0x38 build/../../libmaple/libmaple/dma.o
 .text.dma_enable
                0x00000000       0x10 build/../../libmaple/libmaple/dma.o
 .rodata.str1.1
                0x00000000       0x59 build/../../libmaple/libmaple/dma.o
 .text          0x00000000        0x0 build/../../libmaple/libmaple/exti.o
 .data          0x00000000        0x0 build/../../libmaple/libmaple/exti.o
 .bss           0x00000000        0x0 build/../../libmaple/libmaple/exti.o
 .text.bb_peri_set_bit
                0x00000000        0xe build/../../libmaple/libmaple/exti.o
 .text.exti_detach_interrupt
                0x00000000       0x3c build/../../libmaple/libmaple/exti.o
 .text.exti_attach_interrupt
                0x00000000       0x98 build/../../libmaple/libmaple/exti.o
 .rodata.str1.1
                0x00000000       0x27 build/../../libmaple/libmaple/exti.o
 .text          0x00000000        0x0 build/../../libmaple/libmaple/flash.o
 .data          0x00000000        0x0 build/../../libmaple/libmaple/flash.o
 .bss           0x00000000        0x0 build/../../libmaple/libmaple/flash.o
 .text          0x00000000        0x0 build/../../libmaple/libmaple/fsmc.o
 .data          0x00000000        0x0 build/../../libmaple/libmaple/fsmc.o
 .bss           0x00000000        0x0 build/../../libmaple/libmaple/fsmc.o
 .text          0x00000000        0x0 build/../../libmaple/libmaple/gpio.o
 .data          0x00000000        0x0 build/../../libmaple/libmaple/gpio.o
 .bss           0x00000000        0x0 build/../../libmaple/libmaple/gpio.o
 .text.afio_exti_select
                0x00000000       0x30 build/../../libmaple/libmaple/gpio.o
 .text.afio_remap
                0x00000000       0x20 build/../../libmaple/libmaple/gpio.o
 .rodata.GPIOD  0x00000000        0x4 build/../../libmaple/libmaple/gpio.o
 .text          0x00000000        0x0 build/../../libmaple/libmaple/iwdg.o
 .data          0x00000000        0x0 build/../../libmaple/libmaple/iwdg.o
 .bss           0x00000000        0x0 build/../../libmaple/libmaple/iwdg.o
 .text          0x00000000        0x0 build/../../libmaple/libmaple/nvic.o
 .data          0x00000000        0x0 build/../../libmaple/libmaple/nvic.o
 .bss           0x00000000        0x0 build/../../libmaple/libmaple/nvic.o
 .text          0x00000000        0x0 build/../../libmaple/libmaple/pwr.o
 .data          0x00000000        0x0 build/../../libmaple/libmaple/pwr.o
 .bss           0x00000000        0x0 build/../../libmaple/libmaple/pwr.o
 .text.pwr_init
                0x00000000       0x12 build/../../libmaple/libmaple/pwr.o
 .text          0x00000000        0x0 build/../../libmaple/libmaple/i2c.o
 .data          0x00000000        0x0 build/../../libmaple/libmaple/i2c.o
 .bss           0x00000000        0x0 build/../../libmaple/libmaple/i2c.o
 .text.gpio_write_bit
                0x00000000       0x18 build/../../libmaple/libmaple/i2c.o
 .text.gpio_read_bit
                0x00000000        0xc build/../../libmaple/libmaple/i2c.o
 .text.nvic_irq_enable
                0x00000000       0x1c build/../../libmaple/libmaple/i2c.o
 .text.i2c_init
                0x00000000       0x14 build/../../libmaple/libmaple/i2c.o
 .text.i2c_master_xfer
                0x00000000       0x74 build/../../libmaple/libmaple/i2c.o
 .text.T.4      0x00000000        0xa build/../../libmaple/libmaple/i2c.o
 .text.i2c_bus_reset
                0x00000000       0x9e build/../../libmaple/libmaple/i2c.o
 .text.i2c_master_enable
                0x00000000       0xec build/../../libmaple/libmaple/i2c.o
 .rodata.str1.1
                0x00000000       0x5a build/../../libmaple/libmaple/i2c.o
 .rodata.I2C1   0x00000000        0x4 build/../../libmaple/libmaple/i2c.o
 .rodata.I2C2   0x00000000        0x4 build/../../libmaple/libmaple/i2c.o
 .text          0x00000000        0x0 build/../../libmaple/libmaple/rcc.o
 .data          0x00000000        0x0 build/../../libmaple/libmaple/rcc.o
 .bss           0x00000000        0x0 build/../../libmaple/libmaple/rcc.o
 .text          0x00000000        0x0 build/../../libmaple/libmaple/spi.o
 .data          0x00000000        0x0 build/../../libmaple/libmaple/spi.o
 .bss           0x00000000        0x0 build/../../libmaple/libmaple/spi.o
 .text.spi_foreach
                0x00000000       0x1c build/../../libmaple/libmaple/spi.o
 .text.spi_tx_dma_enable
                0x00000000        0xc build/../../libmaple/libmaple/spi.o
 .text.spi_tx_dma_disable
                0x00000000        0xc build/../../libmaple/libmaple/spi.o
 .text.spi_rx_dma_enable
                0x00000000        0xc build/../../libmaple/libmaple/spi.o
 .text.spi_rx_dma_disable
                0x00000000        0xc build/../../libmaple/libmaple/spi.o
 .text          0x00000000        0x0 build/../../libmaple/libmaple/syscalls.o
 .data          0x00000000        0x0 build/../../libmaple/libmaple/syscalls.o
 .bss           0x00000000        0x0 build/../../libmaple/libmaple/syscalls.o
 .text._open    0x00000000        0x8 build/../../libmaple/libmaple/syscalls.o
 .text._close   0x00000000        0x4 build/../../libmaple/libmaple/syscalls.o
 .text._fstat   0x00000000        0xa build/../../libmaple/libmaple/syscalls.o
 .text._isatty  0x00000000        0x4 build/../../libmaple/libmaple/syscalls.o
 .text.isatty   0x00000000        0x4 build/../../libmaple/libmaple/syscalls.o
 .text._lseek   0x00000000        0x6 build/../../libmaple/libmaple/syscalls.o
 .text.getch    0x00000000        0x4 build/../../libmaple/libmaple/syscalls.o
 .text._read    0x00000000        0x8 build/../../libmaple/libmaple/syscalls.o
 .text.putch    0x00000000        0x2 build/../../libmaple/libmaple/syscalls.o
 .text.cgets    0x00000000       0x22 build/../../libmaple/libmaple/syscalls.o
 .text._write   0x00000000        0x4 build/../../libmaple/libmaple/syscalls.o
 .text.fgets    0x00000000        0xc build/../../libmaple/libmaple/syscalls.o
 .text          0x00000000        0x0 build/../../libmaple/libmaple/systick.o
 .data          0x00000000        0x0 build/../../libmaple/libmaple/systick.o
 .bss           0x00000000        0x0 build/../../libmaple/libmaple/systick.o
 .text.systick_disable
                0x00000000        0xc build/../../libmaple/libmaple/systick.o
 .text.systick_attach_callback
                0x00000000        0xc build/../../libmaple/libmaple/systick.o
 .text          0x00000000        0x0 build/../../libmaple/libmaple/timer.o
 .data          0x00000000        0x0 build/../../libmaple/libmaple/timer.o
 .bss           0x00000000        0x0 build/../../libmaple/libmaple/timer.o
 .text.nvic_irq_enable
                0x00000000       0x1c build/../../libmaple/libmaple/timer.o
 .text.timer_attach_interrupt
                0x00000000       0x98 build/../../libmaple/libmaple/timer.o
 .text          0x00000000        0x0 build/../../libmaple/libmaple/usart.o
 .data          0x00000000        0x0 build/../../libmaple/libmaple/usart.o
 .bss           0x00000000        0x0 build/../../libmaple/libmaple/usart.o
 .text.usart_rx
                0x00000000       0x3c build/../../libmaple/libmaple/usart.o
 .text          0x00000000        0x0 build/../../libmaple/libmaple/util.o
 .data          0x00000000        0x0 build/../../libmaple/libmaple/util.o
 .bss           0x00000000        0x0 build/../../libmaple/libmaple/util.o
 .text.abort    0x00000000       0x20 build/../../libmaple/libmaple/util.o
 .text.__assert_func
                0x00000000        0x6 build/../../libmaple/libmaple/util.o
 .text          0x00000000        0x0 build/../../libmaple/libmaple/usb/usb.o
 .data          0x00000000        0x0 build/../../libmaple/libmaple/usb/usb.o
 .bss           0x00000000        0x0 build/../../libmaple/libmaple/usb/usb.o
 .text          0x00000000        0x0 build/../../libmaple/libmaple/usb/usb_reg_map.o
 .data          0x00000000        0x0 build/../../libmaple/libmaple/usb/usb_reg_map.o
 .bss           0x00000000        0x0 build/../../libmaple/libmaple/usb/usb_reg_map.o
 .text          0x00000000        0x0 build/../../libmaple/libmaple/usb/usb_cdcacm.o
 .data          0x00000000        0x0 build/../../libmaple/libmaple/usb/usb_cdcacm.o
 .bss           0x00000000        0x0 build/../../libmaple/libmaple/usb/usb_cdcacm.o
 .text.usb_cdcacm_get_pending
                0x00000000        0xc build/../../libmaple/libmaple/usb/usb_cdcacm.o
 .text.usb_cdcacm_disable
                0x00000000       0x14 build/../../libmaple/libmaple/usb/usb_cdcacm.o
 .text.usb_cdcacm_putc
                0x00000000       0x16 build/../../libmaple/libmaple/usb/usb_cdcacm.o
 .text          0x00000000        0x0 build/../../libmaple/libmaple/usb/usb_lib/usb_core.o
 .data          0x00000000        0x0 build/../../libmaple/libmaple/usb/usb_lib/usb_core.o
 .bss           0x00000000        0x0 build/../../libmaple/libmaple/usb/usb_lib/usb_core.o
 .text          0x00000000        0x0 build/../../libmaple/libmaple/usb/usb_lib/usb_init.o
 .data          0x00000000        0x0 build/../../libmaple/libmaple/usb/usb_lib/usb_init.o
 .bss           0x00000000        0x0 build/../../libmaple/libmaple/usb/usb_lib/usb_init.o
 .text.USB_Init
                0x00000000       0x38 build/../../libmaple/libmaple/usb/usb_lib/usb_init.o
 .text          0x00000000        0x0 build/../../libmaple/libmaple/usb/usb_lib/usb_mem.o
 .data          0x00000000        0x0 build/../../libmaple/libmaple/usb/usb_lib/usb_mem.o
 .bss           0x00000000        0x0 build/../../libmaple/libmaple/usb/usb_lib/usb_mem.o
 .text          0x00000000        0x0 build/../../libmaple/libmaple/usb/usb_lib/usb_regs.o
 .data          0x00000000        0x0 build/../../libmaple/libmaple/usb/usb_lib/usb_regs.o
 .bss           0x00000000        0x0 build/../../libmaple/libmaple/usb/usb_lib/usb_regs.o
 .text.SetCNTR  0x00000000        0xc build/../../libmaple/libmaple/usb/usb_lib/usb_regs.o
 .text.GetCNTR  0x00000000        0xc build/../../libmaple/libmaple/usb/usb_lib/usb_regs.o
 .text.SetISTR  0x00000000        0xc build/../../libmaple/libmaple/usb/usb_lib/usb_regs.o
 .text.GetISTR  0x00000000        0xc build/../../libmaple/libmaple/usb/usb_lib/usb_regs.o
 .text.GetFNR   0x00000000        0xc build/../../libmaple/libmaple/usb/usb_lib/usb_regs.o
 .text.SetDADDR
                0x00000000        0xc build/../../libmaple/libmaple/usb/usb_lib/usb_regs.o
 .text.GetDADDR
                0x00000000        0xc build/../../libmaple/libmaple/usb/usb_lib/usb_regs.o
 .text.SetBTABLE
                0x00000000       0x14 build/../../libmaple/libmaple/usb/usb_lib/usb_regs.o
 .text.GetBTABLE
                0x00000000        0xc build/../../libmaple/libmaple/usb/usb_lib/usb_regs.o
 .text.SetENDPOINT
                0x00000000        0xe build/../../libmaple/libmaple/usb/usb_lib/usb_regs.o
 .text.GetENDPOINT
                0x00000000       0x10 build/../../libmaple/libmaple/usb/usb_lib/usb_regs.o
 .text.SetEPType
                0x00000000       0x1a build/../../libmaple/libmaple/usb/usb_lib/usb_regs.o
 .text.GetEPType
                0x00000000       0x12 build/../../libmaple/libmaple/usb/usb_lib/usb_regs.o
 .text.SetEPRxStatus
                0x00000000       0x2c build/../../libmaple/libmaple/usb/usb_lib/usb_regs.o
 .text.SetDouBleBuffEPStall
                0x00000000       0x36 build/../../libmaple/libmaple/usb/usb_lib/usb_regs.o
 .text.GetEPTxStatus
                0x00000000       0x12 build/../../libmaple/libmaple/usb/usb_lib/usb_regs.o
 .text.GetEPRxStatus
                0x00000000       0x12 build/../../libmaple/libmaple/usb/usb_lib/usb_regs.o
 .text.SetEPTxValid
                0x00000000       0x1c build/../../libmaple/libmaple/usb/usb_lib/usb_regs.o
 .text.SetEPRxValid
                0x00000000       0x1c build/../../libmaple/libmaple/usb/usb_lib/usb_regs.o
 .text.SetEP_KIND
                0x00000000       0x1c build/../../libmaple/libmaple/usb/usb_lib/usb_regs.o
 .text.ClearEP_KIND
                0x00000000       0x18 build/../../libmaple/libmaple/usb/usb_lib/usb_regs.o
 .text.Clear_Status_Out
                0x00000000       0x18 build/../../libmaple/libmaple/usb/usb_lib/usb_regs.o
 .text.Set_Status_Out
                0x00000000       0x1c build/../../libmaple/libmaple/usb/usb_lib/usb_regs.o
 .text.SetEPDoubleBuff
                0x00000000       0x1c build/../../libmaple/libmaple/usb/usb_lib/usb_regs.o
 .text.ClearEPDoubleBuff
                0x00000000       0x18 build/../../libmaple/libmaple/usb/usb_lib/usb_regs.o
 .text.GetTxStallStatus
                0x00000000       0x1a build/../../libmaple/libmaple/usb/usb_lib/usb_regs.o
 .text.GetRxStallStatus
                0x00000000       0x1c build/../../libmaple/libmaple/usb/usb_lib/usb_regs.o
 .text.ClearEP_CTR_RX
                0x00000000       0x18 build/../../libmaple/libmaple/usb/usb_lib/usb_regs.o
 .text.ClearEP_CTR_TX
                0x00000000       0x18 build/../../libmaple/libmaple/usb/usb_lib/usb_regs.o
 .text.ToggleDTOG_RX
                0x00000000       0x1c build/../../libmaple/libmaple/usb/usb_lib/usb_regs.o
 .text.ToggleDTOG_TX
                0x00000000       0x1c build/../../libmaple/libmaple/usb/usb_lib/usb_regs.o
 .text.SetEPAddress
                0x00000000       0x1a build/../../libmaple/libmaple/usb/usb_lib/usb_regs.o
 .text.GetEPAddress
                0x00000000       0x12 build/../../libmaple/libmaple/usb/usb_lib/usb_regs.o
 .text.SetEPTxAddr
                0x00000000       0x24 build/../../libmaple/libmaple/usb/usb_lib/usb_regs.o
 .text.SetEPRxAddr
                0x00000000       0x24 build/../../libmaple/libmaple/usb/usb_lib/usb_regs.o
 .text.SetEPCountRxReg
                0x00000000       0x28 build/../../libmaple/libmaple/usb/usb_lib/usb_regs.o
 .text.GetEPTxCount
                0x00000000       0x20 build/../../libmaple/libmaple/usb/usb_lib/usb_regs.o
 .text.GetEPRxCount
                0x00000000       0x20 build/../../libmaple/libmaple/usb/usb_lib/usb_regs.o
 .text.SetEPDblBuffAddr
                0x00000000       0x40 build/../../libmaple/libmaple/usb/usb_lib/usb_regs.o
 .text.SetEPDblBuf0Addr
                0x00000000       0x24 build/../../libmaple/libmaple/usb/usb_lib/usb_regs.o
 .text.SetEPDblBuf1Addr
                0x00000000       0x24 build/../../libmaple/libmaple/usb/usb_lib/usb_regs.o
 .text.GetEPDblBuf0Addr
                0x00000000       0x1c build/../../libmaple/libmaple/usb/usb_lib/usb_regs.o
 .text.GetEPDblBuf1Addr
                0x00000000       0x1c build/../../libmaple/libmaple/usb/usb_lib/usb_regs.o
 .text.SetEPDblBuffCount
                0x00000000       0xa8 build/../../libmaple/libmaple/usb/usb_lib/usb_regs.o
 .text.SetEPDblBuf0Count
                0x00000000       0x5c build/../../libmaple/libmaple/usb/usb_lib/usb_regs.o
 .text.SetEPDblBuf1Count
                0x00000000       0x5c build/../../libmaple/libmaple/usb/usb_lib/usb_regs.o
 .text.GetEPDblBuf0Count
                0x00000000       0x20 build/../../libmaple/libmaple/usb/usb_lib/usb_regs.o
 .text.GetEPDblBuf1Count
                0x00000000       0x20 build/../../libmaple/libmaple/usb/usb_lib/usb_regs.o
 .text.GetEPDblBufDir
                0x00000000       0x44 build/../../libmaple/libmaple/usb/usb_lib/usb_regs.o
 .text.FreeUserBuffer
                0x00000000       0x40 build/../../libmaple/libmaple/usb/usb_lib/usb_regs.o
 .text.ToWord   0x00000000        0x6 build/../../libmaple/libmaple/usb/usb_lib/usb_regs.o
 .data          0x00000000        0x0 build/../../libmaple/libmaple/exc.o
 .bss           0x00000000        0x0 build/../../libmaple/libmaple/exc.o
 .text          0x00000000        0x0 build/../../libmaple/wirish/wirish_math.o
 .data          0x00000000        0x0 build/../../libmaple/wirish/wirish_math.o
 .bss           0x00000000        0x0 build/../../libmaple/wirish/wirish_math.o
 .text._Z6randoml
                0x00000000       0x16 build/../../libmaple/wirish/wirish_math.o
 .text._Z6randomll
                0x00000000       0x14 build/../../libmaple/wirish/wirish_math.o
 .text._Z10randomSeedj
                0x00000000        0x8 build/../../libmaple/wirish/wirish_math.o
 .text          0x00000000        0x0 build/../../libmaple/wirish/Print.o
 .data          0x00000000        0x0 build/../../libmaple/wirish/Print.o
 .bss           0x00000000        0x0 build/../../libmaple/wirish/Print.o
 .text._ZN5Print7printlnEc
                0x00000000       0x12 build/../../libmaple/wirish/Print.o
 .text._ZN5Print7printlnEyi
                0x00000000       0x18 build/../../libmaple/wirish/Print.o
 .text._ZN5Print7printlnEmi
                0x00000000       0x1a build/../../libmaple/wirish/Print.o
 .text._ZN5Print5printEji
                0x00000000        0xe build/../../libmaple/wirish/Print.o
 .text._ZN5Print7printlnEji
                0x00000000       0x12 build/../../libmaple/wirish/Print.o
 .text._ZN5Print5printEhi
                0x00000000       0x12 build/../../libmaple/wirish/Print.o
 .text._ZN5Print7printlnEhi
                0x00000000       0x12 build/../../libmaple/wirish/Print.o
 .text._ZN5Print7printlnExi
                0x00000000       0x18 build/../../libmaple/wirish/Print.o
 .text._ZN5Print7printlnEli
                0x00000000       0x1c build/../../libmaple/wirish/Print.o
 .text._ZN5Print5printEli
                0x00000000       0x10 build/../../libmaple/wirish/Print.o
 .text._ZN5Print7printlnEii
                0x00000000       0x12 build/../../libmaple/wirish/Print.o
 .text._ZN5Print10printFloatEdh
                0x00000000      0x150 build/../../libmaple/wirish/Print.o
 .text._ZN5Print5printEdi
                0x00000000        0xa build/../../libmaple/wirish/Print.o
 .text._ZN5Print7printlnEdi
                0x00000000       0x18 build/../../libmaple/wirish/Print.o
 .rodata.str1.1
                0x00000000       0x11 build/../../libmaple/wirish/Print.o
 .text          0x00000000        0x0 build/../../libmaple/wirish/boards.o
 .data          0x00000000        0x0 build/../../libmaple/wirish/boards.o
 .bss           0x00000000        0x0 build/../../libmaple/wirish/boards.o
 .text._Z12boardUsesPinh
                0x00000000       0x28 build/../../libmaple/wirish/boards.o
 .text          0x00000000        0x0 build/../../libmaple/wirish/boards/maple.o
 .data          0x00000000        0x0 build/../../libmaple/wirish/boards/maple.o
 .bss           0x00000000        0x0 build/../../libmaple/wirish/boards/maple.o
 .text          0x00000000        0x0 build/../../libmaple/wirish/boards/maple_mini.o
 .data          0x00000000        0x0 build/../../libmaple/wirish/boards/maple_mini.o
 .bss           0x00000000        0x0 build/../../libmaple/wirish/boards/maple_mini.o
 .USER_FLASH    0x00000000       0x1c build/../../libmaple/wirish/boards/maple_mini.o
 .text          0x00000000        0x0 build/../../libmaple/wirish/boards/maple_native.o
 .data          0x00000000        0x0 build/../../libmaple/wirish/boards/maple_native.o
 .bss           0x00000000        0x0 build/../../libmaple/wirish/boards/maple_native.o
 .text          0x00000000        0x0 build/../../libmaple/wirish/boards/maple_RET6.o
 .data          0x00000000        0x0 build/../../libmaple/wirish/boards/maple_RET6.o
 .bss           0x00000000        0x0 build/../../libmaple/wirish/boards/maple_RET6.o
 .text          0x00000000        0x0 build/../../libmaple/wirish/boards/olimex_stm32_h103.o
 .data          0x00000000        0x0 build/../../libmaple/wirish/boards/olimex_stm32_h103.o
 .bss           0x00000000        0x0 build/../../libmaple/wirish/boards/olimex_stm32_h103.o
 .group         0x00000000        0x8 build/../../libmaple/wirish/comm/HardwareSerial.o
 .text          0x00000000        0x0 build/../../libmaple/wirish/comm/HardwareSerial.o
 .data          0x00000000        0x0 build/../../libmaple/wirish/comm/HardwareSerial.o
 .bss           0x00000000        0x0 build/../../libmaple/wirish/comm/HardwareSerial.o
 .text._ZN14HardwareSerialC2EP9usart_devhhj
                0x00000000       0x24 build/../../libmaple/wirish/comm/HardwareSerial.o
 .text._ZN14HardwareSerial3endEv
                0x00000000        0x6 build/../../libmaple/wirish/comm/HardwareSerial.o
 .text          0x00000000        0x0 build/../../libmaple/wirish/comm/HardwareSPI.o
 .data          0x00000000        0x0 build/../../libmaple/wirish/comm/HardwareSPI.o
 .bss           0x00000000        0x0 build/../../libmaple/wirish/comm/HardwareSPI.o
 .text._ZN11HardwareSPI4recvEv
                0x00000000        0x4 build/../../libmaple/wirish/comm/HardwareSPI.o
 .text._ZN11HardwareSPI6sckPinEv
                0x00000000        0xc build/../../libmaple/wirish/comm/HardwareSPI.o
 .text._ZN11HardwareSPI7mosiPinEv
                0x00000000        0xc build/../../libmaple/wirish/comm/HardwareSPI.o
 .text._ZN11HardwareSPI7misoPinEv
                0x00000000        0xc build/../../libmaple/wirish/comm/HardwareSPI.o
 .text._ZN11HardwareSPI8transferEh
                0x00000000       0x12 build/../../libmaple/wirish/comm/HardwareSPI.o
 .text._ZN11HardwareSPI3endEv
                0x00000000       0x4e build/../../libmaple/wirish/comm/HardwareSPI.o
 .text._ZN11HardwareSPIC2Ej
                0x00000000       0x38 build/../../libmaple/wirish/comm/HardwareSPI.o
 .text._ZN11HardwareSPI10beginSlaveEjj
                0x00000000       0x3c build/../../libmaple/wirish/comm/HardwareSPI.o
 .text._ZN11HardwareSPI10beginSlaveEv
                0x00000000        0x8 build/../../libmaple/wirish/comm/HardwareSPI.o
 .text._ZN11HardwareSPI5beginEv
                0x00000000        0xa build/../../libmaple/wirish/comm/HardwareSPI.o
 .text          0x00000000        0x0 build/../../libmaple/wirish/HardwareTimer.o
 .data          0x00000000        0x0 build/../../libmaple/wirish/HardwareTimer.o
 .bss           0x00000000        0x0 build/../../libmaple/wirish/HardwareTimer.o
 .text._ZN13HardwareTimer17getPrescaleFactorEv
                0x00000000        0xc build/../../libmaple/wirish/HardwareTimer.o
 .text._ZN13HardwareTimer17setPrescaleFactorEj
                0x00000000        0xc build/../../libmaple/wirish/HardwareTimer.o
 .text._ZN13HardwareTimer11getOverflowEv
                0x00000000        0xa build/../../libmaple/wirish/HardwareTimer.o
 .text._ZN13HardwareTimer11setOverflowEt
                0x00000000        0x8 build/../../libmaple/wirish/HardwareTimer.o
 .text._ZN13HardwareTimer8getCountEv
                0x00000000        0xa build/../../libmaple/wirish/HardwareTimer.o
 .text._ZN13HardwareTimer8setCountEt
                0x00000000       0x12 build/../../libmaple/wirish/HardwareTimer.o
 .text._ZN13HardwareTimer9setPeriodEj
                0x00000000       0x60 build/../../libmaple/wirish/HardwareTimer.o
 .text._ZN13HardwareTimer10getCompareEi
                0x00000000       0x12 build/../../libmaple/wirish/HardwareTimer.o
 .text._ZN13HardwareTimer10setCompareEit
                0x00000000       0x1a build/../../libmaple/wirish/HardwareTimer.o
 .text._ZN13HardwareTimer15detachInterruptEi
                0x00000000        0x8 build/../../libmaple/wirish/HardwareTimer.o
 .text._ZN13HardwareTimer15attachInterruptEiPFvvE
                0x00000000        0x8 build/../../libmaple/wirish/HardwareTimer.o
 .text._ZN13HardwareTimer7setModeEi10timer_mode
                0x00000000        0x8 build/../../libmaple/wirish/HardwareTimer.o
 .text._ZN13HardwareTimerC2Eh
                0x00000000       0x58 build/../../libmaple/wirish/HardwareTimer.o
 .text.T.12     0x00000000        0x8 build/../../libmaple/wirish/HardwareTimer.o
 .text._ZN13HardwareTimer7refreshEv
                0x00000000       0x12 build/../../libmaple/wirish/HardwareTimer.o
 .text._ZN13HardwareTimer6resumeEv
                0x00000000       0x10 build/../../libmaple/wirish/HardwareTimer.o
 .text._ZN13HardwareTimer5pauseEv
                0x00000000       0x10 build/../../libmaple/wirish/HardwareTimer.o
 .group         0x00000000        0x8 build/../../libmaple/wirish/usb_serial.o
 .text          0x00000000        0x0 build/../../libmaple/wirish/usb_serial.o
 .data          0x00000000        0x0 build/../../libmaple/wirish/usb_serial.o
 .bss           0x00000000        0x0 build/../../libmaple/wirish/usb_serial.o
 .text._ZN5PrintC2Ev
                0x00000000        0xc build/../../libmaple/wirish/usb_serial.o
 .text._ZN9USBSerialC2Ev
                0x00000000       0x14 build/../../libmaple/wirish/usb_serial.o
 .text._ZN9USBSerial7pendingEv
                0x00000000        0xa build/../../libmaple/wirish/usb_serial.o
 .text._ZN9USBSerial3endEv
                0x00000000       0x10 build/../../libmaple/wirish/usb_serial.o
 .text          0x00000000        0x0 build/../../libmaple/wirish/cxxabi-compat.o
 .data          0x00000000        0x0 build/../../libmaple/wirish/cxxabi-compat.o
 .bss           0x00000000        0x0 build/../../libmaple/wirish/cxxabi-compat.o
 .text          0x00000000        0x0 build/../../libmaple/wirish/wirish_shift.o
 .data          0x00000000        0x0 build/../../libmaple/wirish/wirish_shift.o
 .bss           0x00000000        0x0 build/../../libmaple/wirish/wirish_shift.o
 .text._Z8shiftOuthhhh
                0x00000000       0x42 build/../../libmaple/wirish/wirish_shift.o
 .text          0x00000000        0x0 build/../../libmaple/wirish/wirish_analog.o
 .data          0x00000000        0x0 build/../../libmaple/wirish/wirish_analog.o
 .bss           0x00000000        0x0 build/../../libmaple/wirish/wirish_analog.o
 .text._Z10analogReadh
                0x00000000       0x1c build/../../libmaple/wirish/wirish_analog.o
 .text          0x00000000        0x0 build/../../libmaple/wirish/wirish_time.o
 .data          0x00000000        0x0 build/../../libmaple/wirish/wirish_time.o
 .bss           0x00000000        0x0 build/../../libmaple/wirish/wirish_time.o
 .text          0x00000000        0x0 build/../../libmaple/wirish/pwm.o
 .data          0x00000000        0x0 build/../../libmaple/wirish/pwm.o
 .bss           0x00000000        0x0 build/../../libmaple/wirish/pwm.o
 .text._Z8pwmWriteht
                0x00000000       0x30 build/../../libmaple/wirish/pwm.o
 .text          0x00000000        0x0 build/../../libmaple/wirish/ext_interrupts.o
 .data          0x00000000        0x0 build/../../libmaple/wirish/ext_interrupts.o
 .bss           0x00000000        0x0 build/../../libmaple/wirish/ext_interrupts.o
 .text._Z15detachInterrupth
                0x00000000       0x18 build/../../libmaple/wirish/ext_interrupts.o
 .text._Z15attachInterrupthPFvvE17ExtIntTriggerMode
                0x00000000       0x4c build/../../libmaple/wirish/ext_interrupts.o
 .rodata.str1.1
                0x00000000       0x2b build/../../libmaple/wirish/ext_interrupts.o
 .text          0x00000000        0x0 build/../../libmaple/wirish/wirish_digital.o
 .data          0x00000000        0x0 build/../../libmaple/wirish/wirish_digital.o
 .bss           0x00000000        0x0 build/../../libmaple/wirish/wirish_digital.o
 .text._Z11digitalReadh
                0x00000000       0x2c build/../../libmaple/wirish/wirish_digital.o
 .text._Z15isButtonPressedv
                0x00000000       0x20 build/../../libmaple/wirish/wirish_digital.o
 .text._Z18waitForButtonPressj
                0x00000000       0x40 build/../../libmaple/wirish/wirish_digital.o
 .group         0x00000000        0x8 build/../../libmaple/libraries/Servo/Servo.o
 .text          0x00000000        0x0 build/../../libmaple/libraries/Servo/Servo.o
 .data          0x00000000        0x0 build/../../libmaple/libraries/Servo/Servo.o
 .bss           0x00000000        0x0 build/../../libmaple/libraries/Servo/Servo.o
 .text._ZNK5Servo8attachedEv
                0x00000000        0xe build/../../libmaple/libraries/Servo/Servo.o
 .text._ZL3maplllll
                0x00000000       0x1a build/../../libmaple/libraries/Servo/Servo.o
 .text._ZN5Servo11resetFieldsEv
                0x00000000       0x20 build/../../libmaple/libraries/Servo/Servo.o
 .text._ZN5ServoC1Ev
                0x00000000        0xc build/../../libmaple/libraries/Servo/Servo.o
 .text._ZN5ServoC2Ev
                0x00000000        0xc build/../../libmaple/libraries/Servo/Servo.o
 .text._ZNK5Servo16readMicrosecondsEv
                0x00000000       0x68 build/../../libmaple/libraries/Servo/Servo.o
 .text._ZNK5Servo4readEv
                0x00000000       0x2a build/../../libmaple/libraries/Servo/Servo.o
 .text._ZN5Servo17writeMicrosecondsEt
                0x00000000       0x54 build/../../libmaple/libraries/Servo/Servo.o
 .text._ZN5Servo5writeEi
                0x00000000       0x38 build/../../libmaple/libraries/Servo/Servo.o
 .text._ZN5Servo6detachEv
                0x00000000       0x30 build/../../libmaple/libraries/Servo/Servo.o
 .text.T.15     0x00000000        0x8 build/../../libmaple/libraries/Servo/Servo.o
 .text._ZN5Servo6attachEhttss
                0x00000000       0x78 build/../../libmaple/libraries/Servo/Servo.o
 .rodata.str1.1
                0x00000000       0x2b build/../../libmaple/libraries/Servo/Servo.o
 .group         0x00000000        0x8 build/../../libmaple/libraries/LiquidCrystal/LiquidCrystal.o
 .group         0x00000000        0x8 build/../../libmaple/libraries/LiquidCrystal/LiquidCrystal.o
 .group         0x00000000        0x8 build/../../libmaple/libraries/LiquidCrystal/LiquidCrystal.o
 .group         0x00000000        0x8 build/../../libmaple/libraries/LiquidCrystal/LiquidCrystal.o
 .text          0x00000000        0x0 build/../../libmaple/libraries/LiquidCrystal/LiquidCrystal.o
 .data          0x00000000        0x0 build/../../libmaple/libraries/LiquidCrystal/LiquidCrystal.o
 .bss           0x00000000        0x0 build/../../libmaple/libraries/LiquidCrystal/LiquidCrystal.o
 .text._ZN5PrintC2Ev
                0x00000000        0xc build/../../libmaple/libraries/LiquidCrystal/LiquidCrystal.o
 .text._ZN13LiquidCrystal11pulseEnableEv
                0x00000000       0x2e build/../../libmaple/libraries/LiquidCrystal/LiquidCrystal.o
 .text._ZN13LiquidCrystal10write8bitsEh
                0x00000000       0x28 build/../../libmaple/libraries/LiquidCrystal/LiquidCrystal.o
 .text._ZN13LiquidCrystal10write4bitsEh
                0x00000000       0x28 build/../../libmaple/libraries/LiquidCrystal/LiquidCrystal.o
 .text._ZN13LiquidCrystal4sendEhh
                0x00000000       0x40 build/../../libmaple/libraries/LiquidCrystal/LiquidCrystal.o
 .text._ZN13LiquidCrystal7commandEh
                0x00000000        0x6 build/../../libmaple/libraries/LiquidCrystal/LiquidCrystal.o
 .text._ZN13LiquidCrystal10createCharEhPh
                0x00000000       0x28 build/../../libmaple/libraries/LiquidCrystal/LiquidCrystal.o
 .text._ZN13LiquidCrystal12noAutoscrollEv
                0x00000000       0x10 build/../../libmaple/libraries/LiquidCrystal/LiquidCrystal.o
 .text._ZN13LiquidCrystal10autoscrollEv
                0x00000000       0x10 build/../../libmaple/libraries/LiquidCrystal/LiquidCrystal.o
 .text._ZN13LiquidCrystal11rightToLeftEv
                0x00000000       0x10 build/../../libmaple/libraries/LiquidCrystal/LiquidCrystal.o
 .text._ZN13LiquidCrystal11leftToRightEv
                0x00000000       0x10 build/../../libmaple/libraries/LiquidCrystal/LiquidCrystal.o
 .text._ZN13LiquidCrystal18scrollDisplayRightEv
                0x00000000        0x6 build/../../libmaple/libraries/LiquidCrystal/LiquidCrystal.o
 .text._ZN13LiquidCrystal17scrollDisplayLeftEv
                0x00000000        0x6 build/../../libmaple/libraries/LiquidCrystal/LiquidCrystal.o
 .text._ZN13LiquidCrystal5blinkEv
                0x00000000       0x10 build/../../libmaple/libraries/LiquidCrystal/LiquidCrystal.o
 .text._ZN13LiquidCrystal7noBlinkEv
                0x00000000       0x10 build/../../libmaple/libraries/LiquidCrystal/LiquidCrystal.o
 .text._ZN13LiquidCrystal6cursorEv
                0x00000000       0x10 build/../../libmaple/libraries/LiquidCrystal/LiquidCrystal.o
 .text._ZN13LiquidCrystal8noCursorEv
                0x00000000       0x10 build/../../libmaple/libraries/LiquidCrystal/LiquidCrystal.o
 .text._ZN13LiquidCrystal7displayEv
                0x00000000       0x10 build/../../libmaple/libraries/LiquidCrystal/LiquidCrystal.o
 .text._ZN13LiquidCrystal9noDisplayEv
                0x00000000       0x10 build/../../libmaple/libraries/LiquidCrystal/LiquidCrystal.o
 .text._ZN13LiquidCrystal9setCursorEhh
                0x00000000       0x44 build/../../libmaple/libraries/LiquidCrystal/LiquidCrystal.o
 .text._ZN13LiquidCrystal5writeEh
                0x00000000        0x6 build/../../libmaple/libraries/LiquidCrystal/LiquidCrystal.o
 .text._ZN13LiquidCrystal4homeEv
                0x00000000       0x12 build/../../libmaple/libraries/LiquidCrystal/LiquidCrystal.o
 .text._ZN13LiquidCrystal5clearEv
                0x00000000       0x12 build/../../libmaple/libraries/LiquidCrystal/LiquidCrystal.o
 .text._ZN13LiquidCrystal5beginEhhh
                0x00000000       0xda build/../../libmaple/libraries/LiquidCrystal/LiquidCrystal.o
 .text._ZN13LiquidCrystal4initEhhhhhhhhhhhh
                0x00000000       0x9c build/../../libmaple/libraries/LiquidCrystal/LiquidCrystal.o
 .text._ZN13LiquidCrystalC1Ehhhhhh
                0x00000000       0x54 build/../../libmaple/libraries/LiquidCrystal/LiquidCrystal.o
 .text._ZN13LiquidCrystalC2Ehhhhhh
                0x00000000       0x54 build/../../libmaple/libraries/LiquidCrystal/LiquidCrystal.o
 .text._ZN13LiquidCrystalC1Ehhhhhhh
                0x00000000       0x5c build/../../libmaple/libraries/LiquidCrystal/LiquidCrystal.o
 .text._ZN13LiquidCrystalC2Ehhhhhhh
                0x00000000       0x5c build/../../libmaple/libraries/LiquidCrystal/LiquidCrystal.o
 .text._ZN13LiquidCrystalC1Ehhhhhhhhhh
                0x00000000       0x70 build/../../libmaple/libraries/LiquidCrystal/LiquidCrystal.o
 .text._ZN13LiquidCrystalC2Ehhhhhhhhhh
                0x00000000       0x70 build/../../libmaple/libraries/LiquidCrystal/LiquidCrystal.o
 .text._ZN13LiquidCrystalC1Ehhhhhhhhhhh
                0x00000000       0x74 build/../../libmaple/libraries/LiquidCrystal/LiquidCrystal.o
 .text._ZN13LiquidCrystalC2Ehhhhhhhhhhh
                0x00000000       0x74 build/../../libmaple/libraries/LiquidCrystal/LiquidCrystal.o
 .rodata._ZTV13LiquidCrystal
                0x00000000       0x18 build/../../libmaple/libraries/LiquidCrystal/LiquidCrystal.o
 .rodata._ZZN13LiquidCrystal9setCursorEhhE4C.17
                0x00000000       0x10 build/../../libmaple/libraries/LiquidCrystal/LiquidCrystal.o
 .text          0x00000000        0x0 build/../../libmaple/libraries/Wire/Wire.o
 .data          0x00000000        0x0 build/../../libmaple/libraries/Wire/Wire.o
 .bss           0x00000000        0x0 build/../../libmaple/libraries/Wire/Wire.o
 .text._ZN7TwoWireC2Ev
                0x00000000       0x20 build/../../libmaple/libraries/Wire/Wire.o
 .text._ZN7TwoWire17beginTransmissionEh
                0x00000000       0x18 build/../../libmaple/libraries/Wire/Wire.o
 .text._ZN7TwoWire17beginTransmissionEi
                0x00000000        0x6 build/../../libmaple/libraries/Wire/Wire.o
 .text._ZN7TwoWire4sendEh
                0x00000000       0x1e build/../../libmaple/libraries/Wire/Wire.o
 .text._ZN7TwoWire4sendEPhi
                0x00000000       0x1e build/../../libmaple/libraries/Wire/Wire.o
 .text._ZN7TwoWire4sendEi
                0x00000000        0x6 build/../../libmaple/libraries/Wire/Wire.o
 .text._ZN7TwoWire4sendEPii
                0x00000000        0x6 build/../../libmaple/libraries/Wire/Wire.o
 .text._ZN7TwoWire4sendEPc
                0x00000000       0x1a build/../../libmaple/libraries/Wire/Wire.o
 .text._ZN7TwoWire9availableEv
                0x00000000        0xe build/../../libmaple/libraries/Wire/Wire.o
 .text._ZN7TwoWire7receiveEv
                0x00000000       0x1c build/../../libmaple/libraries/Wire/Wire.o
 .text._ZN7TwoWire5beginEhh
                0x00000000       0x32 build/../../libmaple/libraries/Wire/Wire.o
 .text._ZN7TwoWire5beginEv
                0x00000000        0x8 build/../../libmaple/libraries/Wire/Wire.o
 .text._Z13i2c_shift_out4Porth
                0x00000000       0x56 build/../../libmaple/libraries/Wire/Wire.o
 .text._Z13i2c_send_nack4Port
                0x00000000       0x36 build/../../libmaple/libraries/Wire/Wire.o
 .text._Z12i2c_send_ack4Port
                0x00000000       0x48 build/../../libmaple/libraries/Wire/Wire.o
 .text._Z8i2c_stop4Port
                0x00000000       0x34 build/../../libmaple/libraries/Wire/Wire.o
 .text._Z9i2c_start4Port
                0x00000000       0x36 build/../../libmaple/libraries/Wire/Wire.o
 .text._Z12i2c_shift_in4Port
                0x00000000       0x56 build/../../libmaple/libraries/Wire/Wire.o
 .text._Z11i2c_get_ack4Port
                0x00000000       0x80 build/../../libmaple/libraries/Wire/Wire.o
 .text._ZN7TwoWire11readOneByteEhPh
                0x00000000       0x7c build/../../libmaple/libraries/Wire/Wire.o
 .text._ZN7TwoWire11requestFromEhi
                0x00000000       0x3a build/../../libmaple/libraries/Wire/Wire.o
 .text._ZN7TwoWire11requestFromEii
                0x00000000        0x8 build/../../libmaple/libraries/Wire/Wire.o
 .text._ZN7TwoWire12writeOneByteEh
                0x00000000       0x2e build/../../libmaple/libraries/Wire/Wire.o
 .text._ZN7TwoWire15endTransmissionEv
                0x00000000       0x88 build/../../libmaple/libraries/Wire/Wire.o
 .group         0x00000000        0x8 build/../../libmaple/libraries/SDfat/Sd2Card.o
 .group         0x00000000        0x8 build/../../libmaple/libraries/SDfat/Sd2Card.o
 .group         0x00000000        0x8 build/../../libmaple/libraries/SDfat/Sd2Card.o
 .group         0x00000000        0x8 build/../../libmaple/libraries/SDfat/Sd2Card.o
 .text          0x00000000        0x0 build/../../libmaple/libraries/SDfat/Sd2Card.o
 .data          0x00000000        0x0 build/../../libmaple/libraries/SDfat/Sd2Card.o
 .bss           0x00000000        0x0 build/../../libmaple/libraries/SDfat/Sd2Card.o
 .text._ZN7Sd2Card10setSckRateEh
                0x00000000        0x4 build/../../libmaple/libraries/SDfat/Sd2Card.o
 .text._ZN7Sd2Card9writeStopEv
                0x00000000       0x4c build/../../libmaple/libraries/SDfat/Sd2Card.o
 .text._ZN7Sd2Card9writeDataEPKh
                0x00000000       0x44 build/../../libmaple/libraries/SDfat/Sd2Card.o
 .text._ZN7Sd2Card16partialBlockReadEh
                0x00000000        0xe build/../../libmaple/libraries/SDfat/Sd2Card.o
 .text._ZN7Sd2Card10writeStartEmm
                0x00000000       0x7c build/../../libmaple/libraries/SDfat/Sd2Card.o
 .text._ZN7Sd2Card12readRegisterEhPv
                0x00000000       0x68 build/../../libmaple/libraries/SDfat/Sd2Card.o
 .text._ZN7Sd2Card7readCSDEP5csd_t
                0x00000000        0x8 build/../../libmaple/libraries/SDfat/Sd2Card.o
 .text._ZN7Sd2Card22eraseSingleBlockEnableEv
                0x00000000       0x16 build/../../libmaple/libraries/SDfat/Sd2Card.o
 .text._ZN7Sd2Card8cardSizeEv
                0x00000000       0x84 build/../../libmaple/libraries/SDfat/Sd2Card.o
 .text._ZN7Sd2Card5eraseEmm
                0x00000000       0xa8 build/../../libmaple/libraries/SDfat/Sd2Card.o
 .group         0x00000000        0x8 build/../../libmaple/libraries/SDfat/SdFile.o
 .group         0x00000000        0x8 build/../../libmaple/libraries/SDfat/SdFile.o
 .group         0x00000000        0x8 build/../../libmaple/libraries/SDfat/SdFile.o
 .group         0x00000000        0x8 build/../../libmaple/libraries/SDfat/SdFile.o
 .group         0x00000000        0x8 build/../../libmaple/libraries/SDfat/SdFile.o
 .group         0x00000000        0x8 build/../../libmaple/libraries/SDfat/SdFile.o
 .group         0x00000000        0x8 build/../../libmaple/libraries/SDfat/SdFile.o
 .group         0x00000000        0x8 build/../../libmaple/libraries/SDfat/SdFile.o
 .group         0x00000000        0x8 build/../../libmaple/libraries/SDfat/SdFile.o
 .group         0x00000000        0x8 build/../../libmaple/libraries/SDfat/SdFile.o
 .group         0x00000000        0x8 build/../../libmaple/libraries/SDfat/SdFile.o
 .group         0x00000000        0x8 build/../../libmaple/libraries/SDfat/SdFile.o
 .group         0x00000000        0x8 build/../../libmaple/libraries/SDfat/SdFile.o
 .group         0x00000000        0x8 build/../../libmaple/libraries/SDfat/SdFile.o
 .group         0x00000000        0x8 build/../../libmaple/libraries/SDfat/SdFile.o
 .group         0x00000000        0x8 build/../../libmaple/libraries/SDfat/SdFile.o
 .group         0x00000000        0x8 build/../../libmaple/libraries/SDfat/SdFile.o
 .group         0x00000000        0x8 build/../../libmaple/libraries/SDfat/SdFile.o
 .text          0x00000000        0x0 build/../../libmaple/libraries/SDfat/SdFile.o
 .data          0x00000000        0x0 build/../../libmaple/libraries/SDfat/SdFile.o
 .bss           0x00000000        0x0 build/../../libmaple/libraries/SDfat/SdFile.o
 .text._ZN5PrintC2Ev
                0x00000000        0xc build/../../libmaple/libraries/SDfat/SdFile.o
 .text._ZN6SdFile7dirNameERK14directoryEntryPc
                0x00000000       0x3c build/../../libmaple/libraries/SDfat/SdFile.o
 .text._ZN6SdFile15contiguousRangeEPmS0_
                0x00000000       0x50 build/../../libmaple/libraries/SDfat/SdFile.o
 .text._ZN6SdFile9timestampEhthhhhh
                0x00000000       0xfc build/../../libmaple/libraries/SDfat/SdFile.o
 .text._ZN6SdFile7readDirEP14directoryEntry
                0x00000000       0x4a build/../../libmaple/libraries/SDfat/SdFile.o
 .text._ZN6SdFile8dirEntryEP14directoryEntry
                0x00000000       0x28 build/../../libmaple/libraries/SDfat/SdFile.o
 .text._ZN6SdFile16createContiguousEPS_PKcm
                0x00000000       0x52 build/../../libmaple/libraries/SDfat/SdFile.o
 .text._ZN6SdFile7makeDirEPS_PKc
                0x00000000       0xe8 build/../../libmaple/libraries/SDfat/SdFile.o
 .bss._ZN6SdFile12oldDateTime_E
                0x00000000        0x4 build/../../libmaple/libraries/SDfat/SdFile.o
 .group         0x00000000        0x8 build/../../libmaple/libraries/SDfat/SdVolume.o
 .group         0x00000000        0x8 build/../../libmaple/libraries/SDfat/SdVolume.o
 .group         0x00000000        0x8 build/../../libmaple/libraries/SDfat/SdVolume.o
 .text          0x00000000        0x0 build/../../libmaple/libraries/SDfat/SdVolume.o
 .data          0x00000000        0x0 build/../../libmaple/libraries/SDfat/SdVolume.o
 .bss           0x00000000        0x0 build/../../libmaple/libraries/SDfat/SdVolume.o
 .text._ZN8SdVolume13cacheSetDirtyEv
                0x00000000       0x10 build/../../libmaple/libraries/SDfat/SdVolume.o
 .text._ZNK8SdVolume5isEOCEm
                0x00000000       0x20 build/../../libmaple/libraries/SDfat/SdVolume.o
 .text._ZN8SdVolume9fatPutEOCEm
                0x00000000        0x8 build/../../libmaple/libraries/SDfat/SdVolume.o
 .group         0x00000000        0x8 build/main.o
 .group         0x00000000        0x8 build/main.o
 .text          0x00000000        0x0 build/main.o
 .data          0x00000000        0x0 build/main.o
 .bss           0x00000000        0x0 build/main.o
 .text._ZN5PrintC2Ev
                0x00000000        0xc build/main.o
 .text._ZN6SdFileC1Ev
                0x00000000       0x18 build/main.o
 .text._Z10pingDevicev
                0x00000000        0x2 build/main.o
 .text._Z16writeSysInfoFilev
                0x00000000       0xdc build/main.o
 .text._ZN10DataStreamC2EP5Printi
                0x00000000       0x38 build/main.o
 .text._Z15readSysInfoFilev
                0x00000000       0xf4 build/main.o
 .data.pachubeIP
                0x00000000       0x10 build/main.o
 .bss.deviceLastContact
                0x00000000        0x4 build/main.o
 .data.sysinfoFileName
                0x00000000       0x10 build/main.o
 .bss.lastConnected
                0x00000000        0x4 build/main.o
 .bss.connectedToNet
                0x00000000        0x1 build/main.o
 .data          0x00000000        0x0 /Applications/MapleIDE.app/Contents/Resources/Java/hardware/tools/arm/bin/../lib/gcc/arm-none-eabi/4.4.1/thumb2/libgcc.a(_arm_addsubdf3.o)
 .bss           0x00000000        0x0 /Applications/MapleIDE.app/Contents/Resources/Java/hardware/tools/arm/bin/../lib/gcc/arm-none-eabi/4.4.1/thumb2/libgcc.a(_arm_addsubdf3.o)
 .data          0x00000000        0x0 /Applications/MapleIDE.app/Contents/Resources/Java/hardware/tools/arm/bin/../lib/gcc/arm-none-eabi/4.4.1/thumb2/libgcc.a(_arm_muldivdf3.o)
 .bss           0x00000000        0x0 /Applications/MapleIDE.app/Contents/Resources/Java/hardware/tools/arm/bin/../lib/gcc/arm-none-eabi/4.4.1/thumb2/libgcc.a(_arm_muldivdf3.o)
 .data          0x00000000        0x0 /Applications/MapleIDE.app/Contents/Resources/Java/hardware/tools/arm/bin/../lib/gcc/arm-none-eabi/4.4.1/thumb2/libgcc.a(_arm_cmpdf2.o)
 .bss           0x00000000        0x0 /Applications/MapleIDE.app/Contents/Resources/Java/hardware/tools/arm/bin/../lib/gcc/arm-none-eabi/4.4.1/thumb2/libgcc.a(_arm_cmpdf2.o)
 .data          0x00000000        0x0 /Applications/MapleIDE.app/Contents/Resources/Java/hardware/tools/arm/bin/../lib/gcc/arm-none-eabi/4.4.1/thumb2/libgcc.a(_arm_fixdfsi.o)
 .bss           0x00000000        0x0 /Applications/MapleIDE.app/Contents/Resources/Java/hardware/tools/arm/bin/../lib/gcc/arm-none-eabi/4.4.1/thumb2/libgcc.a(_arm_fixdfsi.o)
 .data          0x00000000        0x0 /Applications/MapleIDE.app/Contents/Resources/Java/hardware/tools/arm/bin/../lib/gcc/arm-none-eabi/4.4.1/thumb2/libgcc.a(_aeabi_ldivmod.o)
 .bss           0x00000000        0x0 /Applications/MapleIDE.app/Contents/Resources/Java/hardware/tools/arm/bin/../lib/gcc/arm-none-eabi/4.4.1/thumb2/libgcc.a(_aeabi_ldivmod.o)
 .data          0x00000000        0x0 /Applications/MapleIDE.app/Contents/Resources/Java/hardware/tools/arm/bin/../lib/gcc/arm-none-eabi/4.4.1/thumb2/libgcc.a(_aeabi_uldivmod.o)
 .bss           0x00000000        0x0 /Applications/MapleIDE.app/Contents/Resources/Java/hardware/tools/arm/bin/../lib/gcc/arm-none-eabi/4.4.1/thumb2/libgcc.a(_aeabi_uldivmod.o)
 .text          0x00000000       0x3c /Applications/MapleIDE.app/Contents/Resources/Java/hardware/tools/arm/bin/../lib/gcc/arm-none-eabi/4.4.1/thumb2/libgcc.a(_fixdfdi.o)
 .data          0x00000000        0x0 /Applications/MapleIDE.app/Contents/Resources/Java/hardware/tools/arm/bin/../lib/gcc/arm-none-eabi/4.4.1/thumb2/libgcc.a(_fixdfdi.o)
 .bss           0x00000000        0x0 /Applications/MapleIDE.app/Contents/Resources/Java/hardware/tools/arm/bin/../lib/gcc/arm-none-eabi/4.4.1/thumb2/libgcc.a(_fixdfdi.o)
 .text          0x00000000       0x44 /Applications/MapleIDE.app/Contents/Resources/Java/hardware/tools/arm/bin/../lib/gcc/arm-none-eabi/4.4.1/thumb2/libgcc.a(_fixunsdfdi.o)
 .data          0x00000000        0x0 /Applications/MapleIDE.app/Contents/Resources/Java/hardware/tools/arm/bin/../lib/gcc/arm-none-eabi/4.4.1/thumb2/libgcc.a(_fixunsdfdi.o)
 .bss           0x00000000        0x0 /Applications/MapleIDE.app/Contents/Resources/Java/hardware/tools/arm/bin/../lib/gcc/arm-none-eabi/4.4.1/thumb2/libgcc.a(_fixunsdfdi.o)
 .data          0x00000000        0x0 /Applications/MapleIDE.app/Contents/Resources/Java/hardware/tools/arm/bin/../lib/gcc/arm-none-eabi/4.4.1/thumb2/libgcc.a(bpabi.o)
 .bss           0x00000000        0x0 /Applications/MapleIDE.app/Contents/Resources/Java/hardware/tools/arm/bin/../lib/gcc/arm-none-eabi/4.4.1/thumb2/libgcc.a(bpabi.o)
 .data          0x00000000        0x0 /Applications/MapleIDE.app/Contents/Resources/Java/hardware/tools/arm/bin/../lib/gcc/arm-none-eabi/4.4.1/thumb2/libgcc.a(_dvmd_tls.o)
 .bss           0x00000000        0x0 /Applications/MapleIDE.app/Contents/Resources/Java/hardware/tools/arm/bin/../lib/gcc/arm-none-eabi/4.4.1/thumb2/libgcc.a(_dvmd_tls.o)
 .text          0x00000000       0x40 /Applications/MapleIDE.app/Contents/Resources/Java/hardware/tools/arm/bin/../lib/gcc/arm-none-eabi/4.4.1/thumb2/libgcc.a(_arm_fixunsdfsi.o)
 .data          0x00000000        0x0 /Applications/MapleIDE.app/Contents/Resources/Java/hardware/tools/arm/bin/../lib/gcc/arm-none-eabi/4.4.1/thumb2/libgcc.a(_arm_fixunsdfsi.o)
 .bss           0x00000000        0x0 /Applications/MapleIDE.app/Contents/Resources/Java/hardware/tools/arm/bin/../lib/gcc/arm-none-eabi/4.4.1/thumb2/libgcc.a(_arm_fixunsdfsi.o)
 .data          0x00000000        0x0 /Applications/MapleIDE.app/Contents/Resources/Java/hardware/tools/arm/bin/../lib/gcc/arm-none-eabi/4.4.1/thumb2/libgcc.a(_divdi3.o)
 .bss           0x00000000        0x0 /Applications/MapleIDE.app/Contents/Resources/Java/hardware/tools/arm/bin/../lib/gcc/arm-none-eabi/4.4.1/thumb2/libgcc.a(_divdi3.o)
 .ARM.extab     0x00000000        0x0 /Applications/MapleIDE.app/Contents/Resources/Java/hardware/tools/arm/bin/../lib/gcc/arm-none-eabi/4.4.1/thumb2/libgcc.a(_divdi3.o)
 .data          0x00000000        0x0 /Applications/MapleIDE.app/Contents/Resources/Java/hardware/tools/arm/bin/../lib/gcc/arm-none-eabi/4.4.1/thumb2/libgcc.a(_udivdi3.o)
 .bss           0x00000000        0x0 /Applications/MapleIDE.app/Contents/Resources/Java/hardware/tools/arm/bin/../lib/gcc/arm-none-eabi/4.4.1/thumb2/libgcc.a(_udivdi3.o)
 .ARM.extab     0x00000000        0x0 /Applications/MapleIDE.app/Contents/Resources/Java/hardware/tools/arm/bin/../lib/gcc/arm-none-eabi/4.4.1/thumb2/libgcc.a(_udivdi3.o)
 .data          0x00000000        0x0 /Applications/MapleIDE.app/Contents/Resources/Java/hardware/tools/arm/bin/../lib/gcc/arm-none-eabi/4.4.1/thumb2/libgcc.a(_udivsi3.o)
 .bss           0x00000000        0x0 /Applications/MapleIDE.app/Contents/Resources/Java/hardware/tools/arm/bin/../lib/gcc/arm-none-eabi/4.4.1/thumb2/libgcc.a(_udivsi3.o)
 .text          0x00000000        0x0 /Applications/MapleIDE.app/Contents/Resources/Java/hardware/tools/arm/bin/../lib/gcc/arm-none-eabi/4.4.1/../../../../arm-none-eabi/lib/thumb2/libc.a(lib_a-atoi.o)
 .data          0x00000000        0x0 /Applications/MapleIDE.app/Contents/Resources/Java/hardware/tools/arm/bin/../lib/gcc/arm-none-eabi/4.4.1/../../../../arm-none-eabi/lib/thumb2/libc.a(lib_a-atoi.o)
 .bss           0x00000000        0x0 /Applications/MapleIDE.app/Contents/Resources/Java/hardware/tools/arm/bin/../lib/gcc/arm-none-eabi/4.4.1/../../../../arm-none-eabi/lib/thumb2/libc.a(lib_a-atoi.o)
 .text._atoi_r  0x00000000        0x8 /Applications/MapleIDE.app/Contents/Resources/Java/hardware/tools/arm/bin/../lib/gcc/arm-none-eabi/4.4.1/../../../../arm-none-eabi/lib/thumb2/libc.a(lib_a-atoi.o)
 .text          0x00000000        0x0 /Applications/MapleIDE.app/Contents/Resources/Java/hardware/tools/arm/bin/../lib/gcc/arm-none-eabi/4.4.1/../../../../arm-none-eabi/lib/thumb2/libc.a(lib_a-atoll.o)
 .data          0x00000000        0x0 /Applications/MapleIDE.app/Contents/Resources/Java/hardware/tools/arm/bin/../lib/gcc/arm-none-eabi/4.4.1/../../../../arm-none-eabi/lib/thumb2/libc.a(lib_a-atoll.o)
 .bss           0x00000000        0x0 /Applications/MapleIDE.app/Contents/Resources/Java/hardware/tools/arm/bin/../lib/gcc/arm-none-eabi/4.4.1/../../../../arm-none-eabi/lib/thumb2/libc.a(lib_a-atoll.o)
 .text._atoll_r
                0x00000000        0x8 /Applications/MapleIDE.app/Contents/Resources/Java/hardware/tools/arm/bin/../lib/gcc/arm-none-eabi/4.4.1/../../../../arm-none-eabi/lib/thumb2/libc.a(lib_a-atoll.o)
 .text          0x00000000        0x0 /Applications/MapleIDE.app/Contents/Resources/Java/hardware/tools/arm/bin/../lib/gcc/arm-none-eabi/4.4.1/../../../../arm-none-eabi/lib/thumb2/libc.a(lib_a-errno.o)
 .data          0x00000000        0x0 /Applications/MapleIDE.app/Contents/Resources/Java/hardware/tools/arm/bin/../lib/gcc/arm-none-eabi/4.4.1/../../../../arm-none-eabi/lib/thumb2/libc.a(lib_a-errno.o)
 .bss           0x00000000        0x0 /Applications/MapleIDE.app/Contents/Resources/Java/hardware/tools/arm/bin/../lib/gcc/arm-none-eabi/4.4.1/../../../../arm-none-eabi/lib/thumb2/libc.a(lib_a-errno.o)
 .text          0x00000000        0x0 /Applications/MapleIDE.app/Contents/Resources/Java/hardware/tools/arm/bin/../lib/gcc/arm-none-eabi/4.4.1/../../../../arm-none-eabi/lib/thumb2/libc.a(lib_a-impure.o)
 .data          0x00000000        0x0 /Applications/MapleIDE.app/Contents/Resources/Java/hardware/tools/arm/bin/../lib/gcc/arm-none-eabi/4.4.1/../../../../arm-none-eabi/lib/thumb2/libc.a(lib_a-impure.o)
 .bss           0x00000000        0x0 /Applications/MapleIDE.app/Contents/Resources/Java/hardware/tools/arm/bin/../lib/gcc/arm-none-eabi/4.4.1/../../../../arm-none-eabi/lib/thumb2/libc.a(lib_a-impure.o)
 .rodata._global_impure_ptr
                0x00000000        0x4 /Applications/MapleIDE.app/Contents/Resources/Java/hardware/tools/arm/bin/../lib/gcc/arm-none-eabi/4.4.1/../../../../arm-none-eabi/lib/thumb2/libc.a(lib_a-impure.o)
 .text          0x00000000        0x0 /Applications/MapleIDE.app/Contents/Resources/Java/hardware/tools/arm/bin/../lib/gcc/arm-none-eabi/4.4.1/../../../../arm-none-eabi/lib/thumb2/libc.a(lib_a-memcmp.o)
 .data          0x00000000        0x0 /Applications/MapleIDE.app/Contents/Resources/Java/hardware/tools/arm/bin/../lib/gcc/arm-none-eabi/4.4.1/../../../../arm-none-eabi/lib/thumb2/libc.a(lib_a-memcmp.o)
 .bss           0x00000000        0x0 /Applications/MapleIDE.app/Contents/Resources/Java/hardware/tools/arm/bin/../lib/gcc/arm-none-eabi/4.4.1/../../../../arm-none-eabi/lib/thumb2/libc.a(lib_a-memcmp.o)
 .text          0x00000000        0x0 /Applications/MapleIDE.app/Contents/Resources/Java/hardware/tools/arm/bin/../lib/gcc/arm-none-eabi/4.4.1/../../../../arm-none-eabi/lib/thumb2/libc.a(lib_a-memcpy.o)
 .data          0x00000000        0x0 /Applications/MapleIDE.app/Contents/Resources/Java/hardware/tools/arm/bin/../lib/gcc/arm-none-eabi/4.4.1/../../../../arm-none-eabi/lib/thumb2/libc.a(lib_a-memcpy.o)
 .bss           0x00000000        0x0 /Applications/MapleIDE.app/Contents/Resources/Java/hardware/tools/arm/bin/../lib/gcc/arm-none-eabi/4.4.1/../../../../arm-none-eabi/lib/thumb2/libc.a(lib_a-memcpy.o)
 .text          0x00000000        0x0 /Applications/MapleIDE.app/Contents/Resources/Java/hardware/tools/arm/bin/../lib/gcc/arm-none-eabi/4.4.1/../../../../arm-none-eabi/lib/thumb2/libc.a(lib_a-memset.o)
 .data          0x00000000        0x0 /Applications/MapleIDE.app/Contents/Resources/Java/hardware/tools/arm/bin/../lib/gcc/arm-none-eabi/4.4.1/../../../../arm-none-eabi/lib/thumb2/libc.a(lib_a-memset.o)
 .bss           0x00000000        0x0 /Applications/MapleIDE.app/Contents/Resources/Java/hardware/tools/arm/bin/../lib/gcc/arm-none-eabi/4.4.1/../../../../arm-none-eabi/lib/thumb2/libc.a(lib_a-memset.o)
 .text          0x00000000        0x0 /Applications/MapleIDE.app/Contents/Resources/Java/hardware/tools/arm/bin/../lib/gcc/arm-none-eabi/4.4.1/../../../../arm-none-eabi/lib/thumb2/libc.a(lib_a-rand.o)
 .data          0x00000000        0x0 /Applications/MapleIDE.app/Contents/Resources/Java/hardware/tools/arm/bin/../lib/gcc/arm-none-eabi/4.4.1/../../../../arm-none-eabi/lib/thumb2/libc.a(lib_a-rand.o)
 .bss           0x00000000        0x0 /Applications/MapleIDE.app/Contents/Resources/Java/hardware/tools/arm/bin/../lib/gcc/arm-none-eabi/4.4.1/../../../../arm-none-eabi/lib/thumb2/libc.a(lib_a-rand.o)
 .text.rand     0x00000000       0x84 /Applications/MapleIDE.app/Contents/Resources/Java/hardware/tools/arm/bin/../lib/gcc/arm-none-eabi/4.4.1/../../../../arm-none-eabi/lib/thumb2/libc.a(lib_a-rand.o)
 .text.srand    0x00000000       0x5c /Applications/MapleIDE.app/Contents/Resources/Java/hardware/tools/arm/bin/../lib/gcc/arm-none-eabi/4.4.1/../../../../arm-none-eabi/lib/thumb2/libc.a(lib_a-rand.o)
 .text          0x00000000        0x0 /Applications/MapleIDE.app/Contents/Resources/Java/hardware/tools/arm/bin/../lib/gcc/arm-none-eabi/4.4.1/../../../../arm-none-eabi/lib/thumb2/libc.a(lib_a-snprintf.o)
 .data          0x00000000        0x0 /Applications/MapleIDE.app/Contents/Resources/Java/hardware/tools/arm/bin/../lib/gcc/arm-none-eabi/4.4.1/../../../../arm-none-eabi/lib/thumb2/libc.a(lib_a-snprintf.o)
 .bss           0x00000000        0x0 /Applications/MapleIDE.app/Contents/Resources/Java/hardware/tools/arm/bin/../lib/gcc/arm-none-eabi/4.4.1/../../../../arm-none-eabi/lib/thumb2/libc.a(lib_a-snprintf.o)
 .text._snprintf_r
                0x00000000       0x5e /Applications/MapleIDE.app/Contents/Resources/Java/hardware/tools/arm/bin/../lib/gcc/arm-none-eabi/4.4.1/../../../../arm-none-eabi/lib/thumb2/libc.a(lib_a-snprintf.o)
 .text          0x00000000        0x0 /Applications/MapleIDE.app/Contents/Resources/Java/hardware/tools/arm/bin/../lib/gcc/arm-none-eabi/4.4.1/../../../../arm-none-eabi/lib/thumb2/libc.a(lib_a-sprintf.o)
 .data          0x00000000        0x0 /Applications/MapleIDE.app/Contents/Resources/Java/hardware/tools/arm/bin/../lib/gcc/arm-none-eabi/4.4.1/../../../../arm-none-eabi/lib/thumb2/libc.a(lib_a-sprintf.o)
 .bss           0x00000000        0x0 /Applications/MapleIDE.app/Contents/Resources/Java/hardware/tools/arm/bin/../lib/gcc/arm-none-eabi/4.4.1/../../../../arm-none-eabi/lib/thumb2/libc.a(lib_a-sprintf.o)
 .text._sprintf_r
                0x00000000       0x40 /Applications/MapleIDE.app/Contents/Resources/Java/hardware/tools/arm/bin/../lib/gcc/arm-none-eabi/4.4.1/../../../../arm-none-eabi/lib/thumb2/libc.a(lib_a-sprintf.o)
 .text          0x00000000        0x0 /Applications/MapleIDE.app/Contents/Resources/Java/hardware/tools/arm/bin/../lib/gcc/arm-none-eabi/4.4.1/../../../../arm-none-eabi/lib/thumb2/libc.a(lib_a-strchr.o)
 .data          0x00000000        0x0 /Applications/MapleIDE.app/Contents/Resources/Java/hardware/tools/arm/bin/../lib/gcc/arm-none-eabi/4.4.1/../../../../arm-none-eabi/lib/thumb2/libc.a(lib_a-strchr.o)
 .bss           0x00000000        0x0 /Applications/MapleIDE.app/Contents/Resources/Java/hardware/tools/arm/bin/../lib/gcc/arm-none-eabi/4.4.1/../../../../arm-none-eabi/lib/thumb2/libc.a(lib_a-strchr.o)
 .text          0x00000000        0x0 /Applications/MapleIDE.app/Contents/Resources/Java/hardware/tools/arm/bin/../lib/gcc/arm-none-eabi/4.4.1/../../../../arm-none-eabi/lib/thumb2/libc.a(lib_a-strcpy.o)
 .data          0x00000000        0x0 /Applications/MapleIDE.app/Contents/Resources/Java/hardware/tools/arm/bin/../lib/gcc/arm-none-eabi/4.4.1/../../../../arm-none-eabi/lib/thumb2/libc.a(lib_a-strcpy.o)
 .bss           0x00000000        0x0 /Applications/MapleIDE.app/Contents/Resources/Java/hardware/tools/arm/bin/../lib/gcc/arm-none-eabi/4.4.1/../../../../arm-none-eabi/lib/thumb2/libc.a(lib_a-strcpy.o)
 .text          0x00000000        0x0 /Applications/MapleIDE.app/Contents/Resources/Java/hardware/tools/arm/bin/../lib/gcc/arm-none-eabi/4.4.1/../../../../arm-none-eabi/lib/thumb2/libc.a(lib_a-strlen.o)
 .data          0x00000000        0x0 /Applications/MapleIDE.app/Contents/Resources/Java/hardware/tools/arm/bin/../lib/gcc/arm-none-eabi/4.4.1/../../../../arm-none-eabi/lib/thumb2/libc.a(lib_a-strlen.o)
 .bss           0x00000000        0x0 /Applications/MapleIDE.app/Contents/Resources/Java/hardware/tools/arm/bin/../lib/gcc/arm-none-eabi/4.4.1/../../../../arm-none-eabi/lib/thumb2/libc.a(lib_a-strlen.o)
 .text          0x00000000        0x0 /Applications/MapleIDE.app/Contents/Resources/Java/hardware/tools/arm/bin/../lib/gcc/arm-none-eabi/4.4.1/../../../../arm-none-eabi/lib/thumb2/libc.a(lib_a-strncmp.o)
 .data          0x00000000        0x0 /Applications/MapleIDE.app/Contents/Resources/Java/hardware/tools/arm/bin/../lib/gcc/arm-none-eabi/4.4.1/../../../../arm-none-eabi/lib/thumb2/libc.a(lib_a-strncmp.o)
 .bss           0x00000000        0x0 /Applications/MapleIDE.app/Contents/Resources/Java/hardware/tools/arm/bin/../lib/gcc/arm-none-eabi/4.4.1/../../../../arm-none-eabi/lib/thumb2/libc.a(lib_a-strncmp.o)
 .text          0x00000000        0x0 /Applications/MapleIDE.app/Contents/Resources/Java/hardware/tools/arm/bin/../lib/gcc/arm-none-eabi/4.4.1/../../../../arm-none-eabi/lib/thumb2/libc.a(lib_a-strncpy.o)
 .data          0x00000000        0x0 /Applications/MapleIDE.app/Contents/Resources/Java/hardware/tools/arm/bin/../lib/gcc/arm-none-eabi/4.4.1/../../../../arm-none-eabi/lib/thumb2/libc.a(lib_a-strncpy.o)
 .bss           0x00000000        0x0 /Applications/MapleIDE.app/Contents/Resources/Java/hardware/tools/arm/bin/../lib/gcc/arm-none-eabi/4.4.1/../../../../arm-none-eabi/lib/thumb2/libc.a(lib_a-strncpy.o)
 .text          0x00000000        0x0 /Applications/MapleIDE.app/Contents/Resources/Java/hardware/tools/arm/bin/../lib/gcc/arm-none-eabi/4.4.1/../../../../arm-none-eabi/lib/thumb2/libc.a(lib_a-strtol.o)
 .data          0x00000000        0x0 /Applications/MapleIDE.app/Contents/Resources/Java/hardware/tools/arm/bin/../lib/gcc/arm-none-eabi/4.4.1/../../../../arm-none-eabi/lib/thumb2/libc.a(lib_a-strtol.o)
 .bss           0x00000000        0x0 /Applications/MapleIDE.app/Contents/Resources/Java/hardware/tools/arm/bin/../lib/gcc/arm-none-eabi/4.4.1/../../../../arm-none-eabi/lib/thumb2/libc.a(lib_a-strtol.o)
 .text          0x00000000        0x0 /Applications/MapleIDE.app/Contents/Resources/Java/hardware/tools/arm/bin/../lib/gcc/arm-none-eabi/4.4.1/../../../../arm-none-eabi/lib/thumb2/libc.a(lib_a-strtoll.o)
 .data          0x00000000        0x0 /Applications/MapleIDE.app/Contents/Resources/Java/hardware/tools/arm/bin/../lib/gcc/arm-none-eabi/4.4.1/../../../../arm-none-eabi/lib/thumb2/libc.a(lib_a-strtoll.o)
 .bss           0x00000000        0x0 /Applications/MapleIDE.app/Contents/Resources/Java/hardware/tools/arm/bin/../lib/gcc/arm-none-eabi/4.4.1/../../../../arm-none-eabi/lib/thumb2/libc.a(lib_a-strtoll.o)
 .text          0x00000000        0x0 /Applications/MapleIDE.app/Contents/Resources/Java/hardware/tools/arm/bin/../lib/gcc/arm-none-eabi/4.4.1/../../../../arm-none-eabi/lib/thumb2/libc.a(lib_a-strtoll_r.o)
 .data          0x00000000        0x0 /Applications/MapleIDE.app/Contents/Resources/Java/hardware/tools/arm/bin/../lib/gcc/arm-none-eabi/4.4.1/../../../../arm-none-eabi/lib/thumb2/libc.a(lib_a-strtoll_r.o)
 .bss           0x00000000        0x0 /Applications/MapleIDE.app/Contents/Resources/Java/hardware/tools/arm/bin/../lib/gcc/arm-none-eabi/4.4.1/../../../../arm-none-eabi/lib/thumb2/libc.a(lib_a-strtoll_r.o)
 .text          0x00000000        0x0 /Applications/MapleIDE.app/Contents/Resources/Java/hardware/tools/arm/bin/../lib/gcc/arm-none-eabi/4.4.1/../../../../arm-none-eabi/lib/thumb2/libc.a(lib_a-svfprintf.o)
 .data          0x00000000        0x0 /Applications/MapleIDE.app/Contents/Resources/Java/hardware/tools/arm/bin/../lib/gcc/arm-none-eabi/4.4.1/../../../../arm-none-eabi/lib/thumb2/libc.a(lib_a-svfprintf.o)
 .bss           0x00000000        0x0 /Applications/MapleIDE.app/Contents/Resources/Java/hardware/tools/arm/bin/../lib/gcc/arm-none-eabi/4.4.1/../../../../arm-none-eabi/lib/thumb2/libc.a(lib_a-svfprintf.o)
 .text          0x00000000        0x0 /Applications/MapleIDE.app/Contents/Resources/Java/hardware/tools/arm/bin/../lib/gcc/arm-none-eabi/4.4.1/../../../../arm-none-eabi/lib/thumb2/libc.a(lib_a-toupper.o)
 .data          0x00000000        0x0 /Applications/MapleIDE.app/Contents/Resources/Java/hardware/tools/arm/bin/../lib/gcc/arm-none-eabi/4.4.1/../../../../arm-none-eabi/lib/thumb2/libc.a(lib_a-toupper.o)
 .bss           0x00000000        0x0 /Applications/MapleIDE.app/Contents/Resources/Java/hardware/tools/arm/bin/../lib/gcc/arm-none-eabi/4.4.1/../../../../arm-none-eabi/lib/thumb2/libc.a(lib_a-toupper.o)
 .text          0x00000000        0x0 /Applications/MapleIDE.app/Contents/Resources/Java/hardware/tools/arm/bin/../lib/gcc/arm-none-eabi/4.4.1/../../../../arm-none-eabi/lib/thumb2/libc.a(lib_a-vsnprintf.o)
 .data          0x00000000        0x0 /Applications/MapleIDE.app/Contents/Resources/Java/hardware/tools/arm/bin/../lib/gcc/arm-none-eabi/4.4.1/../../../../arm-none-eabi/lib/thumb2/libc.a(lib_a-vsnprintf.o)
 .bss           0x00000000        0x0 /Applications/MapleIDE.app/Contents/Resources/Java/hardware/tools/arm/bin/../lib/gcc/arm-none-eabi/4.4.1/../../../../arm-none-eabi/lib/thumb2/libc.a(lib_a-vsnprintf.o)
 .text          0x00000000        0x0 /Applications/MapleIDE.app/Contents/Resources/Java/hardware/tools/arm/bin/../lib/gcc/arm-none-eabi/4.4.1/../../../../arm-none-eabi/lib/thumb2/libc.a(lib_a-ctype_.o)
 .data          0x00000000        0x0 /Applications/MapleIDE.app/Contents/Resources/Java/hardware/tools/arm/bin/../lib/gcc/arm-none-eabi/4.4.1/../../../../arm-none-eabi/lib/thumb2/libc.a(lib_a-ctype_.o)
 .bss           0x00000000        0x0 /Applications/MapleIDE.app/Contents/Resources/Java/hardware/tools/arm/bin/../lib/gcc/arm-none-eabi/4.4.1/../../../../arm-none-eabi/lib/thumb2/libc.a(lib_a-ctype_.o)
 .data.__ctype_ptr
                0x00000000        0x4 /Applications/MapleIDE.app/Contents/Resources/Java/hardware/tools/arm/bin/../lib/gcc/arm-none-eabi/4.4.1/../../../../arm-none-eabi/lib/thumb2/libc.a(lib_a-ctype_.o)
 .text          0x00000000        0x0 /Applications/MapleIDE.app/Contents/Resources/Java/hardware/tools/arm/bin/../lib/gcc/arm-none-eabi/4.4.1/../../../../arm-none-eabi/lib/thumb2/libc.a(lib_a-dtoa.o)
 .data          0x00000000        0x0 /Applications/MapleIDE.app/Contents/Resources/Java/hardware/tools/arm/bin/../lib/gcc/arm-none-eabi/4.4.1/../../../../arm-none-eabi/lib/thumb2/libc.a(lib_a-dtoa.o)
 .bss           0x00000000        0x0 /Applications/MapleIDE.app/Contents/Resources/Java/hardware/tools/arm/bin/../lib/gcc/arm-none-eabi/4.4.1/../../../../arm-none-eabi/lib/thumb2/libc.a(lib_a-dtoa.o)
 .text          0x00000000        0x0 /Applications/MapleIDE.app/Contents/Resources/Java/hardware/tools/arm/bin/../lib/gcc/arm-none-eabi/4.4.1/../../../../arm-none-eabi/lib/thumb2/libc.a(lib_a-freer.o)
 .data          0x00000000        0x0 /Applications/MapleIDE.app/Contents/Resources/Java/hardware/tools/arm/bin/../lib/gcc/arm-none-eabi/4.4.1/../../../../arm-none-eabi/lib/thumb2/libc.a(lib_a-freer.o)
 .bss           0x00000000        0x0 /Applications/MapleIDE.app/Contents/Resources/Java/hardware/tools/arm/bin/../lib/gcc/arm-none-eabi/4.4.1/../../../../arm-none-eabi/lib/thumb2/libc.a(lib_a-freer.o)
 .text          0x00000000        0x0 /Applications/MapleIDE.app/Contents/Resources/Java/hardware/tools/arm/bin/../lib/gcc/arm-none-eabi/4.4.1/../../../../arm-none-eabi/lib/thumb2/libc.a(lib_a-locale.o)
 .data          0x00000000        0x0 /Applications/MapleIDE.app/Contents/Resources/Java/hardware/tools/arm/bin/../lib/gcc/arm-none-eabi/4.4.1/../../../../arm-none-eabi/lib/thumb2/libc.a(lib_a-locale.o)
 .bss           0x00000000        0x0 /Applications/MapleIDE.app/Contents/Resources/Java/hardware/tools/arm/bin/../lib/gcc/arm-none-eabi/4.4.1/../../../../arm-none-eabi/lib/thumb2/libc.a(lib_a-locale.o)
 .text.__locale_charset
                0x00000000        0xc /Applications/MapleIDE.app/Contents/Resources/Java/hardware/tools/arm/bin/../lib/gcc/arm-none-eabi/4.4.1/../../../../arm-none-eabi/lib/thumb2/libc.a(lib_a-locale.o)
 .text.localeconv
                0x00000000        0x8 /Applications/MapleIDE.app/Contents/Resources/Java/hardware/tools/arm/bin/../lib/gcc/arm-none-eabi/4.4.1/../../../../arm-none-eabi/lib/thumb2/libc.a(lib_a-locale.o)
 .text._setlocale_r
                0x00000000       0x38 /Applications/MapleIDE.app/Contents/Resources/Java/hardware/tools/arm/bin/../lib/gcc/arm-none-eabi/4.4.1/../../../../arm-none-eabi/lib/thumb2/libc.a(lib_a-locale.o)
 .text.setlocale
                0x00000000       0x14 /Applications/MapleIDE.app/Contents/Resources/Java/hardware/tools/arm/bin/../lib/gcc/arm-none-eabi/4.4.1/../../../../arm-none-eabi/lib/thumb2/libc.a(lib_a-locale.o)
 .rodata.charset
                0x00000000        0x4 /Applications/MapleIDE.app/Contents/Resources/Java/hardware/tools/arm/bin/../lib/gcc/arm-none-eabi/4.4.1/../../../../arm-none-eabi/lib/thumb2/libc.a(lib_a-locale.o)
 .bss.__nlocale_changed
                0x00000000        0x4 /Applications/MapleIDE.app/Contents/Resources/Java/hardware/tools/arm/bin/../lib/gcc/arm-none-eabi/4.4.1/../../../../arm-none-eabi/lib/thumb2/libc.a(lib_a-locale.o)
 .bss.__mlocale_changed
                0x00000000        0x4 /Applications/MapleIDE.app/Contents/Resources/Java/hardware/tools/arm/bin/../lib/gcc/arm-none-eabi/4.4.1/../../../../arm-none-eabi/lib/thumb2/libc.a(lib_a-locale.o)
 .bss._PathLocale
                0x00000000        0x4 /Applications/MapleIDE.app/Contents/Resources/Java/hardware/tools/arm/bin/../lib/gcc/arm-none-eabi/4.4.1/../../../../arm-none-eabi/lib/thumb2/libc.a(lib_a-locale.o)
 .data.__lc_ctype
                0x00000000        0xc /Applications/MapleIDE.app/Contents/Resources/Java/hardware/tools/arm/bin/../lib/gcc/arm-none-eabi/4.4.1/../../../../arm-none-eabi/lib/thumb2/libc.a(lib_a-locale.o)
 .data.__mb_cur_max
                0x00000000        0x4 /Applications/MapleIDE.app/Contents/Resources/Java/hardware/tools/arm/bin/../lib/gcc/arm-none-eabi/4.4.1/../../../../arm-none-eabi/lib/thumb2/libc.a(lib_a-locale.o)
 .text          0x00000000        0x0 /Applications/MapleIDE.app/Contents/Resources/Java/hardware/tools/arm/bin/../lib/gcc/arm-none-eabi/4.4.1/../../../../arm-none-eabi/lib/thumb2/libc.a(lib_a-malloc.o)
 .data          0x00000000        0x0 /Applications/MapleIDE.app/Contents/Resources/Java/hardware/tools/arm/bin/../lib/gcc/arm-none-eabi/4.4.1/../../../../arm-none-eabi/lib/thumb2/libc.a(lib_a-malloc.o)
 .bss           0x00000000        0x0 /Applications/MapleIDE.app/Contents/Resources/Java/hardware/tools/arm/bin/../lib/gcc/arm-none-eabi/4.4.1/../../../../arm-none-eabi/lib/thumb2/libc.a(lib_a-malloc.o)
 .text.free     0x00000000       0x10 /Applications/MapleIDE.app/Contents/Resources/Java/hardware/tools/arm/bin/../lib/gcc/arm-none-eabi/4.4.1/../../../../arm-none-eabi/lib/thumb2/libc.a(lib_a-malloc.o)
 .text          0x00000000        0x0 /Applications/MapleIDE.app/Contents/Resources/Java/hardware/tools/arm/bin/../lib/gcc/arm-none-eabi/4.4.1/../../../../arm-none-eabi/lib/thumb2/libc.a(lib_a-mallocr.o)
 .data          0x00000000        0x0 /Applications/MapleIDE.app/Contents/Resources/Java/hardware/tools/arm/bin/../lib/gcc/arm-none-eabi/4.4.1/../../../../arm-none-eabi/lib/thumb2/libc.a(lib_a-mallocr.o)
 .bss           0x00000000        0x0 /Applications/MapleIDE.app/Contents/Resources/Java/hardware/tools/arm/bin/../lib/gcc/arm-none-eabi/4.4.1/../../../../arm-none-eabi/lib/thumb2/libc.a(lib_a-mallocr.o)
 .text          0x00000000        0x0 /Applications/MapleIDE.app/Contents/Resources/Java/hardware/tools/arm/bin/../lib/gcc/arm-none-eabi/4.4.1/../../../../arm-none-eabi/lib/thumb2/libc.a(lib_a-memchr.o)
 .data          0x00000000        0x0 /Applications/MapleIDE.app/Contents/Resources/Java/hardware/tools/arm/bin/../lib/gcc/arm-none-eabi/4.4.1/../../../../arm-none-eabi/lib/thumb2/libc.a(lib_a-memchr.o)
 .bss           0x00000000        0x0 /Applications/MapleIDE.app/Contents/Resources/Java/hardware/tools/arm/bin/../lib/gcc/arm-none-eabi/4.4.1/../../../../arm-none-eabi/lib/thumb2/libc.a(lib_a-memchr.o)
 .text          0x00000000        0x0 /Applications/MapleIDE.app/Contents/Resources/Java/hardware/tools/arm/bin/../lib/gcc/arm-none-eabi/4.4.1/../../../../arm-none-eabi/lib/thumb2/libc.a(lib_a-memmove.o)
 .data          0x00000000        0x0 /Applications/MapleIDE.app/Contents/Resources/Java/hardware/tools/arm/bin/../lib/gcc/arm-none-eabi/4.4.1/../../../../arm-none-eabi/lib/thumb2/libc.a(lib_a-memmove.o)
 .bss           0x00000000        0x0 /Applications/MapleIDE.app/Contents/Resources/Java/hardware/tools/arm/bin/../lib/gcc/arm-none-eabi/4.4.1/../../../../arm-none-eabi/lib/thumb2/libc.a(lib_a-memmove.o)
 .text          0x00000000        0x0 /Applications/MapleIDE.app/Contents/Resources/Java/hardware/tools/arm/bin/../lib/gcc/arm-none-eabi/4.4.1/../../../../arm-none-eabi/lib/thumb2/libc.a(lib_a-mlock.o)
 .data          0x00000000        0x0 /Applications/MapleIDE.app/Contents/Resources/Java/hardware/tools/arm/bin/../lib/gcc/arm-none-eabi/4.4.1/../../../../arm-none-eabi/lib/thumb2/libc.a(lib_a-mlock.o)
 .bss           0x00000000        0x0 /Applications/MapleIDE.app/Contents/Resources/Java/hardware/tools/arm/bin/../lib/gcc/arm-none-eabi/4.4.1/../../../../arm-none-eabi/lib/thumb2/libc.a(lib_a-mlock.o)
 .text          0x00000000        0x0 /Applications/MapleIDE.app/Contents/Resources/Java/hardware/tools/arm/bin/../lib/gcc/arm-none-eabi/4.4.1/../../../../arm-none-eabi/lib/thumb2/libc.a(lib_a-mprec.o)
 .data          0x00000000        0x0 /Applications/MapleIDE.app/Contents/Resources/Java/hardware/tools/arm/bin/../lib/gcc/arm-none-eabi/4.4.1/../../../../arm-none-eabi/lib/thumb2/libc.a(lib_a-mprec.o)
 .bss           0x00000000        0x0 /Applications/MapleIDE.app/Contents/Resources/Java/hardware/tools/arm/bin/../lib/gcc/arm-none-eabi/4.4.1/../../../../arm-none-eabi/lib/thumb2/libc.a(lib_a-mprec.o)
 .text.__ulp    0x00000000       0x44 /Applications/MapleIDE.app/Contents/Resources/Java/hardware/tools/arm/bin/../lib/gcc/arm-none-eabi/4.4.1/../../../../arm-none-eabi/lib/thumb2/libc.a(lib_a-mprec.o)
 .text.__b2d    0x00000000       0xa8 /Applications/MapleIDE.app/Contents/Resources/Java/hardware/tools/arm/bin/../lib/gcc/arm-none-eabi/4.4.1/../../../../arm-none-eabi/lib/thumb2/libc.a(lib_a-mprec.o)
 .text.__ratio  0x00000000       0x48 /Applications/MapleIDE.app/Contents/Resources/Java/hardware/tools/arm/bin/../lib/gcc/arm-none-eabi/4.4.1/../../../../arm-none-eabi/lib/thumb2/libc.a(lib_a-mprec.o)
 .text._mprec_log10
                0x00000000       0x34 /Applications/MapleIDE.app/Contents/Resources/Java/hardware/tools/arm/bin/../lib/gcc/arm-none-eabi/4.4.1/../../../../arm-none-eabi/lib/thumb2/libc.a(lib_a-mprec.o)
 .text.__copybits
                0x00000000       0x3c /Applications/MapleIDE.app/Contents/Resources/Java/hardware/tools/arm/bin/../lib/gcc/arm-none-eabi/4.4.1/../../../../arm-none-eabi/lib/thumb2/libc.a(lib_a-mprec.o)
 .text.__any_on
                0x00000000       0x46 /Applications/MapleIDE.app/Contents/Resources/Java/hardware/tools/arm/bin/../lib/gcc/arm-none-eabi/4.4.1/../../../../arm-none-eabi/lib/thumb2/libc.a(lib_a-mprec.o)
 .text.__s2b    0x00000000       0x82 /Applications/MapleIDE.app/Contents/Resources/Java/hardware/tools/arm/bin/../lib/gcc/arm-none-eabi/4.4.1/../../../../arm-none-eabi/lib/thumb2/libc.a(lib_a-mprec.o)
 .rodata.__mprec_tinytens
                0x00000000       0x28 /Applications/MapleIDE.app/Contents/Resources/Java/hardware/tools/arm/bin/../lib/gcc/arm-none-eabi/4.4.1/../../../../arm-none-eabi/lib/thumb2/libc.a(lib_a-mprec.o)
 .text          0x00000000        0x0 /Applications/MapleIDE.app/Contents/Resources/Java/hardware/tools/arm/bin/../lib/gcc/arm-none-eabi/4.4.1/../../../../arm-none-eabi/lib/thumb2/libc.a(lib_a-reallocr.o)
 .data          0x00000000        0x0 /Applications/MapleIDE.app/Contents/Resources/Java/hardware/tools/arm/bin/../lib/gcc/arm-none-eabi/4.4.1/../../../../arm-none-eabi/lib/thumb2/libc.a(lib_a-reallocr.o)
 .bss           0x00000000        0x0 /Applications/MapleIDE.app/Contents/Resources/Java/hardware/tools/arm/bin/../lib/gcc/arm-none-eabi/4.4.1/../../../../arm-none-eabi/lib/thumb2/libc.a(lib_a-reallocr.o)
 .text          0x00000000        0x0 /Applications/MapleIDE.app/Contents/Resources/Java/hardware/tools/arm/bin/../lib/gcc/arm-none-eabi/4.4.1/../../../../arm-none-eabi/lib/thumb2/libc.a(lib_a-s_isinfd.o)
 .data          0x00000000        0x0 /Applications/MapleIDE.app/Contents/Resources/Java/hardware/tools/arm/bin/../lib/gcc/arm-none-eabi/4.4.1/../../../../arm-none-eabi/lib/thumb2/libc.a(lib_a-s_isinfd.o)
 .bss           0x00000000        0x0 /Applications/MapleIDE.app/Contents/Resources/Java/hardware/tools/arm/bin/../lib/gcc/arm-none-eabi/4.4.1/../../../../arm-none-eabi/lib/thumb2/libc.a(lib_a-s_isinfd.o)
 .text          0x00000000        0x0 /Applications/MapleIDE.app/Contents/Resources/Java/hardware/tools/arm/bin/../lib/gcc/arm-none-eabi/4.4.1/../../../../arm-none-eabi/lib/thumb2/libc.a(lib_a-s_isnand.o)
 .data          0x00000000        0x0 /Applications/MapleIDE.app/Contents/Resources/Java/hardware/tools/arm/bin/../lib/gcc/arm-none-eabi/4.4.1/../../../../arm-none-eabi/lib/thumb2/libc.a(lib_a-s_isnand.o)
 .bss           0x00000000        0x0 /Applications/MapleIDE.app/Contents/Resources/Java/hardware/tools/arm/bin/../lib/gcc/arm-none-eabi/4.4.1/../../../../arm-none-eabi/lib/thumb2/libc.a(lib_a-s_isnand.o)
 .text          0x00000000        0x0 /Applications/MapleIDE.app/Contents/Resources/Java/hardware/tools/arm/bin/../lib/gcc/arm-none-eabi/4.4.1/../../../../arm-none-eabi/lib/thumb2/libc.a(lib_a-sbrkr.o)
 .data          0x00000000        0x0 /Applications/MapleIDE.app/Contents/Resources/Java/hardware/tools/arm/bin/../lib/gcc/arm-none-eabi/4.4.1/../../../../arm-none-eabi/lib/thumb2/libc.a(lib_a-sbrkr.o)
 .bss           0x00000000        0x0 /Applications/MapleIDE.app/Contents/Resources/Java/hardware/tools/arm/bin/../lib/gcc/arm-none-eabi/4.4.1/../../../../arm-none-eabi/lib/thumb2/libc.a(lib_a-sbrkr.o)
 .text          0x00000000        0x0 /Applications/MapleIDE.app/Contents/Resources/Java/hardware/tools/arm/bin/../lib/gcc/arm-none-eabi/4.4.1/../../../../arm-none-eabi/lib/thumb2/libc.a(lib_a-strcmp.o)
 .data          0x00000000        0x0 /Applications/MapleIDE.app/Contents/Resources/Java/hardware/tools/arm/bin/../lib/gcc/arm-none-eabi/4.4.1/../../../../arm-none-eabi/lib/thumb2/libc.a(lib_a-strcmp.o)
 .bss           0x00000000        0x0 /Applications/MapleIDE.app/Contents/Resources/Java/hardware/tools/arm/bin/../lib/gcc/arm-none-eabi/4.4.1/../../../../arm-none-eabi/lib/thumb2/libc.a(lib_a-strcmp.o)
 .text.strcmp   0x00000000       0x16 /Applications/MapleIDE.app/Contents/Resources/Java/hardware/tools/arm/bin/../lib/gcc/arm-none-eabi/4.4.1/../../../../arm-none-eabi/lib/thumb2/libc.a(lib_a-strcmp.o)
 .text          0x00000000        0x0 /Applications/MapleIDE.app/Contents/Resources/Java/hardware/tools/arm/bin/../lib/gcc/arm-none-eabi/4.4.1/../../../../arm-none-eabi/lib/thumb2/libc.a(lib_a-callocr.o)
 .data          0x00000000        0x0 /Applications/MapleIDE.app/Contents/Resources/Java/hardware/tools/arm/bin/../lib/gcc/arm-none-eabi/4.4.1/../../../../arm-none-eabi/lib/thumb2/libc.a(lib_a-callocr.o)
 .bss           0x00000000        0x0 /Applications/MapleIDE.app/Contents/Resources/Java/hardware/tools/arm/bin/../lib/gcc/arm-none-eabi/4.4.1/../../../../arm-none-eabi/lib/thumb2/libc.a(lib_a-callocr.o)
 .text          0x00000000        0x0 /Applications/MapleIDE.app/Contents/Resources/Java/hardware/tools/arm/bin/../lib/gcc/arm-none-eabi/4.4.1/../../../../arm-none-eabi/lib/thumb2/libc.a(lib_a-reent.o)
 .data          0x00000000        0x0 /Applications/MapleIDE.app/Contents/Resources/Java/hardware/tools/arm/bin/../lib/gcc/arm-none-eabi/4.4.1/../../../../arm-none-eabi/lib/thumb2/libc.a(lib_a-reent.o)
 .bss           0x00000000        0x0 /Applications/MapleIDE.app/Contents/Resources/Java/hardware/tools/arm/bin/../lib/gcc/arm-none-eabi/4.4.1/../../../../arm-none-eabi/lib/thumb2/libc.a(lib_a-reent.o)
 .text._wrapup_reent
                0x00000000       0x30 /Applications/MapleIDE.app/Contents/Resources/Java/hardware/tools/arm/bin/../lib/gcc/arm-none-eabi/4.4.1/../../../../arm-none-eabi/lib/thumb2/libc.a(lib_a-reent.o)
 .text.cleanup_glue
                0x00000000       0x1a /Applications/MapleIDE.app/Contents/Resources/Java/hardware/tools/arm/bin/../lib/gcc/arm-none-eabi/4.4.1/../../../../arm-none-eabi/lib/thumb2/libc.a(lib_a-reent.o)
 .text._reclaim_reent
                0x00000000       0xb4 /Applications/MapleIDE.app/Contents/Resources/Java/hardware/tools/arm/bin/../lib/gcc/arm-none-eabi/4.4.1/../../../../arm-none-eabi/lib/thumb2/libc.a(lib_a-reent.o)
 .data          0x00000000        0x0 /Applications/MapleIDE.app/Contents/Resources/Java/hardware/tools/arm/bin/../lib/gcc/arm-none-eabi/4.4.1/thumb2/libgcc.a(_divsi3.o)
 .bss           0x00000000        0x0 /Applications/MapleIDE.app/Contents/Resources/Java/hardware/tools/arm/bin/../lib/gcc/arm-none-eabi/4.4.1/thumb2/libgcc.a(_divsi3.o)
 .text          0x00000000        0x0 /Applications/MapleIDE.app/Contents/Resources/Java/hardware/tools/arm/bin/../lib/gcc/arm-none-eabi/4.4.1/thumb2/crtend.o
 .data          0x00000000        0x0 /Applications/MapleIDE.app/Contents/Resources/Java/hardware/tools/arm/bin/../lib/gcc/arm-none-eabi/4.4.1/thumb2/crtend.o
 .bss           0x00000000        0x0 /Applications/MapleIDE.app/Contents/Resources/Java/hardware/tools/arm/bin/../lib/gcc/arm-none-eabi/4.4.1/thumb2/crtend.o
 .jcr           0x00000000        0x4 /Applications/MapleIDE.app/Contents/Resources/Java/hardware/tools/arm/bin/../lib/gcc/arm-none-eabi/4.4.1/thumb2/crtend.o
 .text          0x00000000        0x0 /Applications/MapleIDE.app/Contents/Resources/Java/hardware/tools/arm/bin/../lib/gcc/arm-none-eabi/4.4.1/thumb2/crtn.o
 .data          0x00000000        0x0 /Applications/MapleIDE.app/Contents/Resources/Java/hardware/tools/arm/bin/../lib/gcc/arm-none-eabi/4.4.1/thumb2/crtn.o
 .bss           0x00000000        0x0 /Applications/MapleIDE.app/Contents/Resources/Java/hardware/tools/arm/bin/../lib/gcc/arm-none-eabi/4.4.1/thumb2/crtn.o
 .text          0x00000000        0x0 ../../libmaple/support/ld/libcs3_stm32_med_density.a(stm32_vector_table.o)
 .data          0x00000000        0x0 ../../libmaple/support/ld/libcs3_stm32_med_density.a(stm32_vector_table.o)
 .bss           0x00000000        0x0 ../../libmaple/support/ld/libcs3_stm32_med_density.a(stm32_vector_table.o)
 .data          0x00000000        0x0 ../../libmaple/support/ld/libcs3_stm32_med_density.a(stm32_isrs.o)
 .bss           0x00000000        0x0 ../../libmaple/support/ld/libcs3_stm32_med_density.a(stm32_isrs.o)
 .data          0x00000000        0x0 ../../libmaple/support/ld/libcs3_stm32_med_density.a(start.o)
 .bss           0x00000000        0x0 ../../libmaple/support/ld/libcs3_stm32_med_density.a(start.o)
 .ARM.extab     0x00000000        0x0 ../../libmaple/support/ld/libcs3_stm32_med_density.a(start.o)
 .data          0x00000000        0x0 ../../libmaple/support/ld/libcs3_stm32_med_density.a(start_c.o)
 .bss           0x00000000        0x0 ../../libmaple/support/ld/libcs3_stm32_med_density.a(start_c.o)
 .text          0x00000000        0x0 /Applications/MapleIDE.app/Contents/Resources/Java/hardware/tools/arm/bin/../lib/gcc/arm-none-eabi/4.4.1/../../../../arm-none-eabi/lib/thumb2/libc.a(lib_a-init.o)
 .data          0x00000000        0x0 /Applications/MapleIDE.app/Contents/Resources/Java/hardware/tools/arm/bin/../lib/gcc/arm-none-eabi/4.4.1/../../../../arm-none-eabi/lib/thumb2/libc.a(lib_a-init.o)
 .bss           0x00000000        0x0 /Applications/MapleIDE.app/Contents/Resources/Java/hardware/tools/arm/bin/../lib/gcc/arm-none-eabi/4.4.1/../../../../arm-none-eabi/lib/thumb2/libc.a(lib_a-init.o)

Memory Configuration

Name             Origin             Length             Attributes
ram              0x20000c00         0x00004400         xrw
rom              0x08005000         0x0001b000         xr
*default*        0x00000000         0xffffffff

Linker script and memory map

LOAD /Applications/MapleIDE.app/Contents/Resources/Java/hardware/tools/arm/bin/../lib/gcc/arm-none-eabi/4.4.1/thumb2/crti.o
LOAD /Applications/MapleIDE.app/Contents/Resources/Java/hardware/tools/arm/bin/../lib/gcc/arm-none-eabi/4.4.1/thumb2/crtbegin.o
LOAD build/../../libmaple/libmaple/adc.o
LOAD build/../../libmaple/libmaple/bkp.o
LOAD build/../../libmaple/libmaple/dac.o
LOAD build/../../libmaple/libmaple/dma.o
LOAD build/../../libmaple/libmaple/exti.o
LOAD build/../../libmaple/libmaple/flash.o
LOAD build/../../libmaple/libmaple/fsmc.o
LOAD build/../../libmaple/libmaple/gpio.o
LOAD build/../../libmaple/libmaple/iwdg.o
LOAD build/../../libmaple/libmaple/nvic.o
LOAD build/../../libmaple/libmaple/pwr.o
LOAD build/../../libmaple/libmaple/i2c.o
LOAD build/../../libmaple/libmaple/rcc.o
LOAD build/../../libmaple/libmaple/spi.o
LOAD build/../../libmaple/libmaple/syscalls.o
LOAD build/../../libmaple/libmaple/systick.o
LOAD build/../../libmaple/libmaple/timer.o
LOAD build/../../libmaple/libmaple/usart.o
LOAD build/../../libmaple/libmaple/util.o
LOAD build/../../libmaple/libmaple/usb/usb.o
LOAD build/../../libmaple/libmaple/usb/usb_reg_map.o
LOAD build/../../libmaple/libmaple/usb/usb_cdcacm.o
LOAD build/../../libmaple/libmaple/usb/usb_lib/usb_core.o
LOAD build/../../libmaple/libmaple/usb/usb_lib/usb_init.o
LOAD build/../../libmaple/libmaple/usb/usb_lib/usb_mem.o
LOAD build/../../libmaple/libmaple/usb/usb_lib/usb_regs.o
LOAD build/../../libmaple/libmaple/exc.o
LOAD build/../../libmaple/wirish/wirish_math.o
LOAD build/../../libmaple/wirish/Print.o
LOAD build/../../libmaple/wirish/boards.o
LOAD build/../../libmaple/wirish/boards/maple.o
LOAD build/../../libmaple/wirish/boards/maple_mini.o
LOAD build/../../libmaple/wirish/boards/maple_native.o
LOAD build/../../libmaple/wirish/boards/maple_RET6.o
LOAD build/../../libmaple/wirish/boards/olimex_stm32_h103.o
LOAD build/../../libmaple/wirish/comm/HardwareSerial.o
LOAD build/../../libmaple/wirish/comm/HardwareSPI.o
LOAD build/../../libmaple/wirish/HardwareTimer.o
LOAD build/../../libmaple/wirish/usb_serial.o
LOAD build/../../libmaple/wirish/cxxabi-compat.o
LOAD build/../../libmaple/wirish/wirish_shift.o
LOAD build/../../libmaple/wirish/wirish_analog.o
LOAD build/../../libmaple/wirish/wirish_time.o
LOAD build/../../libmaple/wirish/pwm.o
LOAD build/../../libmaple/wirish/ext_interrupts.o
LOAD build/../../libmaple/wirish/wirish_digital.o
LOAD build/../../libmaple/libraries/Servo/Servo.o
LOAD build/../../libmaple/libraries/LiquidCrystal/LiquidCrystal.o
LOAD build/../../libmaple/libraries/Wire/Wire.o
LOAD build/../../libmaple/libraries/SDfat/Sd2Card.o
LOAD build/../../libmaple/libraries/SDfat/SdFile.o
LOAD build/../../libmaple/libraries/SDfat/SdVolume.o
LOAD build/main.o
LOAD /Applications/MapleIDE.app/Contents/Resources/Java/hardware/tools/arm/bin/../lib/gcc/arm-none-eabi/4.4.1/../../../../arm-none-eabi/lib/thumb2/libstdc++.a
LOAD /Applications/MapleIDE.app/Contents/Resources/Java/hardware/tools/arm/bin/../lib/gcc/arm-none-eabi/4.4.1/../../../../arm-none-eabi/lib/thumb2/libm.a
START GROUP
LOAD /Applications/MapleIDE.app/Contents/Resources/Java/hardware/tools/arm/bin/../lib/gcc/arm-none-eabi/4.4.1/thumb2/libgcc.a
LOAD /Applications/MapleIDE.app/Contents/Resources/Java/hardware/tools/arm/bin/../lib/gcc/arm-none-eabi/4.4.1/../../../../arm-none-eabi/lib/thumb2/libc.a
END GROUP
LOAD /Applications/MapleIDE.app/Contents/Resources/Java/hardware/tools/arm/bin/../lib/gcc/arm-none-eabi/4.4.1/thumb2/crtend.o
LOAD /Applications/MapleIDE.app/Contents/Resources/Java/hardware/tools/arm/bin/../lib/gcc/arm-none-eabi/4.4.1/thumb2/crtn.o
START GROUP
LOAD ../../libmaple/support/ld/libcs3_stm32_med_density.a
END GROUP
                0x00000001                _FLASH_BUILD = 0x1
START GROUP
LOAD /Applications/MapleIDE.app/Contents/Resources/Java/hardware/tools/arm/bin/../lib/gcc/arm-none-eabi/4.4.1/thumb2/libgcc.a
LOAD /Applications/MapleIDE.app/Contents/Resources/Java/hardware/tools/arm/bin/../lib/gcc/arm-none-eabi/4.4.1/../../../../arm-none-eabi/lib/thumb2/libc.a
LOAD /Applications/MapleIDE.app/Contents/Resources/Java/hardware/tools/arm/bin/../lib/gcc/arm-none-eabi/4.4.1/../../../../arm-none-eabi/lib/thumb2/libm.a
END GROUP
                0x20005000                PROVIDE (__cs3_stack, (__cs3_region_start_ram + 0x4400))
                0x0800f204                PROVIDE (__cs3_reset, _start)

.text           0x08005000     0xa3a4
                0x08005000                __text_start = .
 *(.stm32.interrupt_vector)
 .stm32.interrupt_vector
                0x08005000       0xec ../../libmaple/support/ld/libcs3_stm32_med_density.a(stm32_vector_table.o)
                0x08005000                __cs3_stm32_vector_table
 *(.text .text.* .gnu.linkonce.t.*)
 .text          0x080050ec       0x30 /Applications/MapleIDE.app/Contents/Resources/Java/hardware/tools/arm/bin/../lib/gcc/arm-none-eabi/4.4.1/thumb2/crtbegin.o
 .text.adc_set_extsel
                0x0800511c       0x10 build/../../libmaple/libmaple/adc.o
                0x0800511c                adc_set_extsel
 .text.adc_foreach
                0x0800512c       0x1c build/../../libmaple/libmaple/adc.o
                0x0800512c                adc_foreach
 .text.adc_set_sample_rate
                0x08005148       0x2e build/../../libmaple/libmaple/adc.o
                0x08005148                adc_set_sample_rate
 .text.adc_init
                0x08005176       0x14 build/../../libmaple/libmaple/adc.o
                0x08005176                adc_init
 .text.bb_perip
                0x0800518a        0xc build/../../libmaple/libmaple/adc.o
 .text.adc_calibrate
                0x08005196       0x2e build/../../libmaple/libmaple/adc.o
                0x08005196                adc_calibrate
 .text.dma_clear_isr_bits
                0x080051c4       0x10 build/../../libmaple/libmaple/dma.o
 .text.dispatch_handler
                0x080051d4       0x1c build/../../libmaple/libmaple/dma.o
 .text.__irq_dma1_channel1
                0x080051f0       0x10 build/../../libmaple/libmaple/dma.o
                0x080051f0                __irq_dma1_channel1
 .text.__irq_dma1_channel2
                0x08005200       0x10 build/../../libmaple/libmaple/dma.o
                0x08005200                __irq_dma1_channel2
 .text.__irq_dma1_channel3
                0x08005210       0x10 build/../../libmaple/libmaple/dma.o
                0x08005210                __irq_dma1_channel3
 .text.__irq_dma1_channel4
                0x08005220       0x10 build/../../libmaple/libmaple/dma.o
                0x08005220                __irq_dma1_channel4
 .text.__irq_dma1_channel5
                0x08005230       0x10 build/../../libmaple/libmaple/dma.o
                0x08005230                __irq_dma1_channel5
 .text.__irq_dma1_channel6
                0x08005240       0x10 build/../../libmaple/libmaple/dma.o
                0x08005240                __irq_dma1_channel6
 .text.__irq_dma1_channel7
                0x08005250       0x10 build/../../libmaple/libmaple/dma.o
                0x08005250                __irq_dma1_channel7
 .text.clear_pending_msk
                0x08005260       0x10 build/../../libmaple/libmaple/exti.o
 .text.dispatch_single_exti
                0x08005270       0x20 build/../../libmaple/libmaple/exti.o
 .text.__irq_exti4
                0x08005290        0x6 build/../../libmaple/libmaple/exti.o
                0x08005290                __irq_exti4
 .text.__irq_exti3
                0x08005296        0x6 build/../../libmaple/libmaple/exti.o
                0x08005296                __irq_exti3
 .text.__irq_exti2
                0x0800529c        0x6 build/../../libmaple/libmaple/exti.o
                0x0800529c                __irq_exti2
 .text.__irq_exti1
                0x080052a2        0x6 build/../../libmaple/libmaple/exti.o
                0x080052a2                __irq_exti1
 .text.__irq_exti0
                0x080052a8        0x6 build/../../libmaple/libmaple/exti.o
                0x080052a8                __irq_exti0
 *fill*         0x080052ae        0x2 00
 .text.dispatch_extis
                0x080052b0       0x44 build/../../libmaple/libmaple/exti.o
 .text.__irq_exti15_10
                0x080052f4        0x8 build/../../libmaple/libmaple/exti.o
                0x080052f4                __irq_exti15_10
 .text.__irq_exti9_5
                0x080052fc        0x8 build/../../libmaple/libmaple/exti.o
                0x080052fc                __irq_exti9_5
 .text.flash_set_latency
                0x08005304       0x14 build/../../libmaple/libmaple/flash.o
                0x08005304                flash_set_latency
 .text.flash_enable_prefetch
                0x08005318        0xc build/../../libmaple/libmaple/flash.o
                0x08005318                flash_enable_prefetch
 .text.gpio_set_mode
                0x08005324       0x56 build/../../libmaple/libmaple/gpio.o
                0x08005324                gpio_set_mode
 .text.afio_init
                0x0800537a       0x12 build/../../libmaple/libmaple/gpio.o
                0x0800537a                afio_init
 .text.gpio_init
                0x0800538c       0x14 build/../../libmaple/libmaple/gpio.o
                0x0800538c                gpio_init
 .text.gpio_init_all
                0x080053a0       0x30 build/../../libmaple/libmaple/gpio.o
                0x080053a0                gpio_init_all
 .text.iwdg_feed
                0x080053d0       0x10 build/../../libmaple/libmaple/iwdg.o
                0x080053d0                iwdg_feed
 .text.iwdg_init
                0x080053e0       0x1c build/../../libmaple/libmaple/iwdg.o
                0x080053e0                iwdg_init
 .text.nvic_irq_set_priority
                0x080053fc       0x2c build/../../libmaple/libmaple/nvic.o
                0x080053fc                nvic_irq_set_priority
 .text.nvic_set_vector_table
                0x08005428       0x14 build/../../libmaple/libmaple/nvic.o
                0x08005428                nvic_set_vector_table
 .text.nvic_init
                0x0800543c       0x24 build/../../libmaple/libmaple/nvic.o
                0x0800543c                nvic_init
 .text.nvic_sys_reset
                0x08005460       0x20 build/../../libmaple/libmaple/nvic.o
                0x08005460                nvic_sys_reset
 .text.i2c_write
                0x08005480        0x6 build/../../libmaple/libmaple/i2c.o
 .text.i2c_start_condition
                0x08005486       0x14 build/../../libmaple/libmaple/i2c.o
 .text.i2c_stop_condition
                0x0800549a       0x1c build/../../libmaple/libmaple/i2c.o
 .text.i2c_enable_irq
                0x080054b6        0xc build/../../libmaple/libmaple/i2c.o
 .text.i2c_disable_irq
                0x080054c2        0xc build/../../libmaple/libmaple/i2c.o
 .text.i2c_disable_ack
                0x080054ce        0xc build/../../libmaple/libmaple/i2c.o
 .text.i2c_irq_error_handler
                0x080054da       0x2a build/../../libmaple/libmaple/i2c.o
 .text.__irq_i2c1_er
                0x08005504        0xc build/../../libmaple/libmaple/i2c.o
                0x08005504                __irq_i2c1_er
 .text.__irq_i2c2_er
                0x08005510        0xc build/../../libmaple/libmaple/i2c.o
                0x08005510                __irq_i2c2_er
 .text.i2c_irq_handler
                0x0800551c      0x158 build/../../libmaple/libmaple/i2c.o
 .text.__irq_i2c2_ev
                0x08005674        0xc build/../../libmaple/libmaple/i2c.o
                0x08005674                __irq_i2c2_ev
 .text.__irq_i2c1_ev
                0x08005680        0xc build/../../libmaple/libmaple/i2c.o
                0x08005680                __irq_i2c1_ev
 .text.rcc_dev_clk
                0x0800568c        0xc build/../../libmaple/libmaple/rcc.o
                0x0800568c                rcc_dev_clk
 .text.rcc_set_prescaler
                0x08005698       0x20 build/../../libmaple/libmaple/rcc.o
                0x08005698                rcc_set_prescaler
 .text.rcc_clk_init
                0x080056b8       0x64 build/../../libmaple/libmaple/rcc.o
                0x080056b8                rcc_clk_init
 .text.bb_peri_set_bit
                0x0800571c        0xe build/../../libmaple/libmaple/rcc.o
 *fill*         0x0800572a        0x2 00
 .text.rcc_reset_dev
                0x0800572c       0x34 build/../../libmaple/libmaple/rcc.o
                0x0800572c                rcc_reset_dev
 .text.rcc_clk_enable
                0x08005760       0x20 build/../../libmaple/libmaple/rcc.o
                0x08005760                rcc_clk_enable
 .text.spi_tx   0x08005780       0x2a build/../../libmaple/libmaple/spi.o
                0x08005780                spi_tx
 .text.spi_gpio_cfg
                0x080057aa       0x66 build/../../libmaple/libmaple/spi.o
                0x080057aa                spi_gpio_cfg
 .text.spi_init
                0x08005810       0x14 build/../../libmaple/libmaple/spi.o
                0x08005810                spi_init
 .text.bb_peri_set_bit
                0x08005824        0xe build/../../libmaple/libmaple/spi.o
 .text.spi_peripheral_enable
                0x08005832        0xa build/../../libmaple/libmaple/spi.o
                0x08005832                spi_peripheral_enable
 .text.spi_peripheral_disable
                0x0800583c        0xa build/../../libmaple/libmaple/spi.o
                0x0800583c                spi_peripheral_disable
 .text.spi_reconfigure
                0x08005846       0x22 build/../../libmaple/libmaple/spi.o
 .text.spi_slave_enable
                0x08005868        0x8 build/../../libmaple/libmaple/spi.o
                0x08005868                spi_slave_enable
 .text.spi_master_enable
                0x08005870        0xc build/../../libmaple/libmaple/spi.o
                0x08005870                spi_master_enable
 .text._sbrk    0x0800587c       0x44 build/../../libmaple/libmaple/syscalls.o
                0x0800587c                _sbrk
 .text.systick_enable
                0x080058c0        0xc build/../../libmaple/libmaple/systick.o
                0x080058c0                systick_enable
 .text.systick_init
                0x080058cc        0xc build/../../libmaple/libmaple/systick.o
                0x080058cc                systick_init
 .text.__exc_systick
                0x080058d8       0x1c build/../../libmaple/libmaple/systick.o
                0x080058d8                __exc_systick
 .text.timer_oc_set_mode
                0x080058f4       0x38 build/../../libmaple/libmaple/timer.o
 .text.timer_disable
                0x0800592c       0x12 build/../../libmaple/libmaple/timer.o
                0x0800592c                timer_disable
 *fill*         0x0800593e        0x2 00
 .text.timer_foreach
                0x08005940       0x30 build/../../libmaple/libmaple/timer.o
                0x08005940                timer_foreach
 .text.dispatch_single_irq
                0x08005970       0x1a build/../../libmaple/libmaple/timer.o
 *fill*         0x0800598a        0x2 00
 .text.__irq_tim1_brk
                0x0800598c       0x10 build/../../libmaple/libmaple/timer.o
                0x0800598c                __irq_tim1_brk
 .text.__irq_tim1_up
                0x0800599c       0x10 build/../../libmaple/libmaple/timer.o
                0x0800599c                __irq_tim1_up
 .text.__irq_tim1_trg_com
                0x080059ac       0x40 build/../../libmaple/libmaple/timer.o
                0x080059ac                __irq_tim1_trg_com
 .text.__irq_tim1_cc
                0x080059ec       0x60 build/../../libmaple/libmaple/timer.o
                0x080059ec                __irq_tim1_cc
 .text.dispatch_general
                0x08005a4c       0x82 build/../../libmaple/libmaple/timer.o
 *fill*         0x08005ace        0x2 00
 .text.__irq_tim4
                0x08005ad0        0xc build/../../libmaple/libmaple/timer.o
                0x08005ad0                __irq_tim4
 .text.__irq_tim3
                0x08005adc        0xc build/../../libmaple/libmaple/timer.o
                0x08005adc                __irq_tim3
 .text.__irq_tim2
                0x08005ae8        0xc build/../../libmaple/libmaple/timer.o
                0x08005ae8                __irq_tim2
 .text.timer_init
                0x08005af4       0x14 build/../../libmaple/libmaple/timer.o
                0x08005af4                timer_init
 .text.bb_perip
                0x08005b08        0xc build/../../libmaple/libmaple/timer.o
 .text.timer_disable_irq
                0x08005b14       0x10 build/../../libmaple/libmaple/timer.o
 .text.timer_detach_interrupt
                0x08005b24       0x14 build/../../libmaple/libmaple/timer.o
                0x08005b24                timer_detach_interrupt
 .text.timer_cc_enable
                0x08005b38       0x14 build/../../libmaple/libmaple/timer.o
 .text.timer_set_mode
                0x08005b4c       0x90 build/../../libmaple/libmaple/timer.o
                0x08005b4c                timer_set_mode
 .text.rb_remove
                0x08005bdc       0x1a build/../../libmaple/libmaple/usart.o
 .text.usart_set_baud_rate
                0x08005bf6       0x34 build/../../libmaple/libmaple/usart.o
                0x08005bf6                usart_set_baud_rate
 .text.usart_enable
                0x08005c2a       0x10 build/../../libmaple/libmaple/usart.o
                0x08005c2a                usart_enable
 .text.usart_disable
                0x08005c3a       0x22 build/../../libmaple/libmaple/usart.o
                0x08005c3a                usart_disable
 .text.usart_foreach
                0x08005c5c       0x24 build/../../libmaple/libmaple/usart.o
                0x08005c5c                usart_foreach
 .text.usart_tx
                0x08005c80       0x1c build/../../libmaple/libmaple/usart.o
                0x08005c80                usart_tx
 .text.usart_putudec
                0x08005c9c       0x44 build/../../libmaple/libmaple/usart.o
                0x08005c9c                usart_putudec
 .text.usart_irq
                0x08005ce0       0x3c build/../../libmaple/libmaple/usart.o
 .text.__irq_usart1
                0x08005d1c        0xc build/../../libmaple/libmaple/usart.o
                0x08005d1c                __irq_usart1
 .text.__irq_usart2
                0x08005d28        0xc build/../../libmaple/libmaple/usart.o
                0x08005d28                __irq_usart2
 .text.__irq_usart3
                0x08005d34        0xc build/../../libmaple/libmaple/usart.o
                0x08005d34                __irq_usart3
 .text.usart_init
                0x08005d40       0x44 build/../../libmaple/libmaple/usart.o
                0x08005d40                usart_init
 .text.nvic_irq_enable
                0x08005d84       0x1c build/../../libmaple/libmaple/util.o
 .text.usart_putc
                0x08005da0       0x1a build/../../libmaple/libmaple/util.o
 .text.usart_putstr
                0x08005dba       0x1a build/../../libmaple/libmaple/util.o
 .text._enable_error_usart
                0x08005dd4       0x34 build/../../libmaple/libmaple/util.o
                0x08005dd4                _enable_error_usart
 .text.T.15     0x08005e08       0x10 build/../../libmaple/libmaple/util.o
 .text.throb    0x08005e18       0x4c build/../../libmaple/libmaple/util.o
                0x08005e18                throb
 .text.__error  0x08005e64       0x48 build/../../libmaple/libmaple/util.o
                0x08005e64                __error
 .text._fail    0x08005eac       0x68 build/../../libmaple/libmaple/util.o
                0x08005eac                _fail
 .text.adc_disable
                0x08005f14       0x12 build/../../libmaple/libmaple/util.o
 *fill*         0x08005f26        0x2 00
 .text.usb_clear_ctr_rx
                0x08005f28       0x18 build/../../libmaple/libmaple/usb/usb.o
 .text.usb_clear_ctr_tx
                0x08005f40       0x18 build/../../libmaple/libmaple/usb/usb.o
 .text.usbSuspend
                0x08005f58       0x24 build/../../libmaple/libmaple/usb/usb.o
                0x08005f58                usbSuspend
 .text.usbResumeInit
                0x08005f7c       0x1c build/../../libmaple/libmaple/usb/usb.o
                0x08005f7c                usbResumeInit
 .text.usbResume
                0x08005f98       0x90 build/../../libmaple/libmaple/usb/usb.o
                0x08005f98                usbResume
 .text.usbIsConfigured
                0x08006028       0x14 build/../../libmaple/libmaple/usb/usb.o
                0x08006028                usbIsConfigured
 .text.usbIsConnected
                0x0800603c       0x14 build/../../libmaple/libmaple/usb/usb.o
                0x0800603c                usbIsConnected
 .text.handle_in0
                0x08006050        0x4 build/../../libmaple/libmaple/usb/usb.o
 .text.usb_init_usblib
                0x08006054       0x4c build/../../libmaple/libmaple/usb/usb.o
                0x08006054                usb_init_usblib
 .text.usbWaitReset
                0x080060a0       0x10 build/../../libmaple/libmaple/usb/usb.o
                0x080060a0                usbWaitReset
 .text.set_rx_tx_status0
                0x080060b0       0x38 build/../../libmaple/libmaple/usb/usb.o
 .text.__irq_usb_lp_can_rx0
                0x080060e8      0x18c build/../../libmaple/libmaple/usb/usb.o
                0x080060e8                __irq_usb_lp_can_rx0
 .text.usb_pma_ptr
                0x08006274        0xc build/../../libmaple/libmaple/usb/usb_reg_map.o
 .text.usb_copy_to_pma
                0x08006280       0x44 build/../../libmaple/libmaple/usb/usb_reg_map.o
                0x08006280                usb_copy_to_pma
 .text.usb_copy_from_pma
                0x080062c4       0x30 build/../../libmaple/libmaple/usb/usb_reg_map.o
                0x080062c4                usb_copy_from_pma
 .text.usb_set_ep_rx_count
                0x080062f4       0x40 build/../../libmaple/libmaple/usb/usb_reg_map.o
                0x080062f4                usb_set_ep_rx_count
 .text.gpio_write_bit
                0x08006334       0x18 build/../../libmaple/libmaple/usb/usb_cdcacm.o
 .text.usb_set_ep_rx_stat
                0x0800634c       0x24 build/../../libmaple/libmaple/usb/usb_cdcacm.o
 .text.usb_set_ep_tx_stat
                0x08006370       0x24 build/../../libmaple/libmaple/usb/usb_cdcacm.o
 .text.usb_set_ep_type
                0x08006394       0x1c build/../../libmaple/libmaple/usb/usb_cdcacm.o
 .text.usb_btable_ptr
                0x080063b0       0x18 build/../../libmaple/libmaple/usb/usb_cdcacm.o
 .text.usb_set_ep_tx_addr
                0x080063c8       0x12 build/../../libmaple/libmaple/usb/usb_cdcacm.o
 .text.usb_set_ep_rx_addr
                0x080063da       0x14 build/../../libmaple/libmaple/usb/usb_cdcacm.o
 *fill*         0x080063ee        0x2 00
 .text.usb_cdcacm_data_available
                0x080063f0        0xc build/../../libmaple/libmaple/usb/usb_cdcacm.o
                0x080063f0                usb_cdcacm_data_available
 .text.usb_cdcacm_get_dtr
                0x080063fc       0x10 build/../../libmaple/libmaple/usb/usb_cdcacm.o
                0x080063fc                usb_cdcacm_get_dtr
 .text.usb_cdcacm_get_rts
                0x0800640c       0x10 build/../../libmaple/libmaple/usb/usb_cdcacm.o
                0x0800640c                usb_cdcacm_get_rts
 .text.vcomDataTxCb
                0x0800641c        0xc build/../../libmaple/libmaple/usb/usb_cdcacm.o
 .text.vcomGetSetLineCoding
                0x08006428       0x18 build/../../libmaple/libmaple/usb/usb_cdcacm.o
 .text.usbDataSetup
                0x08006440       0x40 build/../../libmaple/libmaple/usb/usb_cdcacm.o
 .text.usbNoDataSetup
                0x08006480       0x64 build/../../libmaple/libmaple/usb/usb_cdcacm.o
 .text.usbGetInterfaceSetting
                0x080064e4        0xe build/../../libmaple/libmaple/usb/usb_cdcacm.o
 *fill*         0x080064f2        0x2 00
 .text.usbSetConfiguration
                0x080064f4       0x1c build/../../libmaple/libmaple/usb/usb_cdcacm.o
 .text.usbSetDeviceAddress
                0x08006510       0x10 build/../../libmaple/libmaple/usb/usb_cdcacm.o
 .text.usbGetStringDescriptor
                0x08006520       0x20 build/../../libmaple/libmaple/usb/usb_cdcacm.o
 .text.usbGetConfigDescriptor
                0x08006540        0xc build/../../libmaple/libmaple/usb/usb_cdcacm.o
 .text.usbGetDeviceDescriptor
                0x0800654c        0xc build/../../libmaple/libmaple/usb/usb_cdcacm.o
 .text.usb_cdcacm_rx
                0x08006558       0x60 build/../../libmaple/libmaple/usb/usb_cdcacm.o
                0x08006558                usb_cdcacm_rx
 .text.usb_cdcacm_enable
                0x080065b8       0x2c build/../../libmaple/libmaple/usb/usb_cdcacm.o
                0x080065b8                usb_cdcacm_enable
 .text.usbInit  0x080065e4       0x44 build/../../libmaple/libmaple/usb/usb_cdcacm.o
 .text.vcomDataRxCb
                0x08006628       0xbc build/../../libmaple/libmaple/usb/usb_cdcacm.o
 .text.usbReset
                0x080066e4      0x104 build/../../libmaple/libmaple/usb/usb_cdcacm.o
 .text.usb_cdcacm_tx
                0x080067e8       0x44 build/../../libmaple/libmaple/usb/usb_cdcacm.o
                0x080067e8                usb_cdcacm_tx
 .text.Standard_GetConfiguration
                0x0800682c       0x28 build/../../libmaple/libmaple/usb/usb_lib/usb_core.o
                0x0800682c                Standard_GetConfiguration
 .text.Standard_SetConfiguration
                0x08006854       0x38 build/../../libmaple/libmaple/usb/usb_lib/usb_core.o
                0x08006854                Standard_SetConfiguration
 .text.Standard_GetInterface
                0x0800688c       0x28 build/../../libmaple/libmaple/usb/usb_lib/usb_core.o
                0x0800688c                Standard_GetInterface
 .text.Standard_SetInterface
                0x080068b4       0x48 build/../../libmaple/libmaple/usb/usb_lib/usb_core.o
                0x080068b4                Standard_SetInterface
 .text.Standard_GetStatus
                0x080068fc       0xa4 build/../../libmaple/libmaple/usb/usb_lib/usb_core.o
                0x080068fc                Standard_GetStatus
 .text.Standard_SetEndPointFeature
                0x080069a0       0x84 build/../../libmaple/libmaple/usb/usb_lib/usb_core.o
                0x080069a0                Standard_SetEndPointFeature
 .text.Standard_SetDeviceFeature
                0x08006a24       0x24 build/../../libmaple/libmaple/usb/usb_lib/usb_core.o
                0x08006a24                Standard_SetDeviceFeature
 .text.Standard_GetDescriptorData
                0x08006a48       0x1c build/../../libmaple/libmaple/usb/usb_lib/usb_core.o
                0x08006a48                Standard_GetDescriptorData
 .text.SetDeviceAddress
                0x08006a64       0x44 build/../../libmaple/libmaple/usb/usb_lib/usb_core.o
                0x08006a64                SetDeviceAddress
 .text.NOP_Process
                0x08006aa8        0x2 build/../../libmaple/libmaple/usb/usb_lib/usb_core.o
                0x08006aa8                NOP_Process
 *fill*         0x08006aaa        0x2 00
 .text.Post0_Process
                0x08006aac       0x44 build/../../libmaple/libmaple/usb/usb_lib/usb_core.o
                0x08006aac                Post0_Process
 .text.Out0_Process
                0x08006af0       0xd4 build/../../libmaple/libmaple/usb/usb_lib/usb_core.o
                0x08006af0                Out0_Process
 .text.DataStageIn
                0x08006bc4       0xac build/../../libmaple/libmaple/usb/usb_lib/usb_core.o
 .text.In0_Process
                0x08006c70       0x60 build/../../libmaple/libmaple/usb/usb_lib/usb_core.o
                0x08006c70                In0_Process
 .text.Standard_ClearFeature
                0x08006cd0       0xd4 build/../../libmaple/libmaple/usb/usb_lib/usb_core.o
                0x08006cd0                Standard_ClearFeature
 .text.Setup0_Process
                0x08006da4      0x304 build/../../libmaple/libmaple/usb/usb_lib/usb_core.o
                0x08006da4                Setup0_Process
 .text.UserToPMABufferCopy
                0x080070a8       0x2e build/../../libmaple/libmaple/usb/usb_lib/usb_mem.o
                0x080070a8                UserToPMABufferCopy
 .text.PMAToUserBufferCopy
                0x080070d6       0x24 build/../../libmaple/libmaple/usb/usb_lib/usb_mem.o
                0x080070d6                PMAToUserBufferCopy
 .text.SetEPTxStatus
                0x080070fa       0x2c build/../../libmaple/libmaple/usb/usb_lib/usb_regs.o
                0x080070fa                SetEPTxStatus
 .text.ClearDTOG_RX
                0x08007126       0x24 build/../../libmaple/libmaple/usb/usb_lib/usb_regs.o
                0x08007126                ClearDTOG_RX
 .text.ClearDTOG_TX
                0x0800714a       0x24 build/../../libmaple/libmaple/usb/usb_lib/usb_regs.o
                0x0800714a                ClearDTOG_TX
 *fill*         0x0800716e        0x2 00
 .text.GetEPTxAddr
                0x08007170       0x1c build/../../libmaple/libmaple/usb/usb_lib/usb_regs.o
                0x08007170                GetEPTxAddr
 .text.GetEPRxAddr
                0x0800718c       0x1c build/../../libmaple/libmaple/usb/usb_lib/usb_regs.o
                0x0800718c                GetEPRxAddr
 .text.SetEPTxCount
                0x080071a8       0x1c build/../../libmaple/libmaple/usb/usb_lib/usb_regs.o
                0x080071a8                SetEPTxCount
 .text.SetEPRxCount
                0x080071c4       0x40 build/../../libmaple/libmaple/usb/usb_lib/usb_regs.o
                0x080071c4                SetEPRxCount
 .text.ByteSwap
                0x08007204        0xa build/../../libmaple/libmaple/usb/usb_lib/usb_regs.o
                0x08007204                ByteSwap
 *fill*         0x0800720e        0x2 00
 .text          0x08007210       0x60 build/../../libmaple/libmaple/exc.o
                0x08007210                __exc_nmi
                0x08007214                __exc_hardfault
                0x08007218                __exc_memmanage
                0x0800721c                __exc_busfault
                0x08007220                __exc_usagefault
 .text._ZN5Print5writeEPKc
                0x08007270       0x1c build/../../libmaple/wirish/Print.o
                0x08007270                _ZN5Print5writeEPKc
 .text._ZN5Print5writeEPKvj
                0x0800728c       0x20 build/../../libmaple/wirish/Print.o
                0x0800728c                _ZN5Print5writeEPKvj
 .text._ZN5Print5printEc
                0x080072ac        0xa build/../../libmaple/wirish/Print.o
                0x080072ac                _ZN5Print5printEc
 .text._ZN5Print5printEPKc
                0x080072b6        0xa build/../../libmaple/wirish/Print.o
                0x080072b6                _ZN5Print5printEPKc
 .text._ZN5Print7printlnEv
                0x080072c0       0x16 build/../../libmaple/wirish/Print.o
                0x080072c0                _ZN5Print7printlnEv
 .text._ZN5Print7printlnEPKc
                0x080072d6       0x12 build/../../libmaple/wirish/Print.o
                0x080072d6                _ZN5Print7printlnEPKc
 .text._ZN5Print11printNumberEyh
                0x080072e8       0x7c build/../../libmaple/wirish/Print.o
                0x080072e8                _ZN5Print11printNumberEyh
 .text._ZN5Print5printEyi
                0x08007364       0x1e build/../../libmaple/wirish/Print.o
                0x08007364                _ZN5Print5printEyi
 .text._ZN5Print5printEmi
                0x08007382        0xe build/../../libmaple/wirish/Print.o
                0x08007382                _ZN5Print5printEmi
 .text._ZN5Print5printExi
                0x08007390       0x40 build/../../libmaple/wirish/Print.o
                0x08007390                _ZN5Print5printExi
 .text._ZN5Print5printEii
                0x080073d0       0x10 build/../../libmaple/wirish/Print.o
                0x080073d0                _ZN5Print5printEii
 .text._Z4initv
                0x080073e0       0x88 build/../../libmaple/wirish/boards.o
                0x080073e0                _Z4initv
 .text._ZL8bb_peripPVvj
                0x08007468        0xc build/../../libmaple/wirish/boards.o
 .text._ZL16adcDefaultConfigPK7adc_dev
                0x08007474       0x3e build/../../libmaple/wirish/boards.o
 .text._ZL18timerDefaultConfigP9timer_dev
                0x080074b2       0x98 build/../../libmaple/wirish/boards.o
 *fill*         0x0800754a        0x2 00
 .text._GLOBAL__I__Z9boardInitv
                0x0800754c      0x118 build/../../libmaple/wirish/boards/maple_mini.o
 .text._Z9boardInitv
                0x08007664       0x14 build/../../libmaple/wirish/boards/maple_mini.o
                0x08007664                _Z9boardInitv
 .text._ZN5PrintC2Ev
                0x08007678        0xc build/../../libmaple/wirish/comm/HardwareSerial.o
                0x08007678                _ZN5PrintC2Ev
 .text._ZN14HardwareSerialC1EP9usart_devhhj
                0x08007684       0x24 build/../../libmaple/wirish/comm/HardwareSerial.o
                0x08007684                _ZN14HardwareSerialC1EP9usart_devhhj
 .text._ZN14HardwareSerial4readEv
                0x080076a8       0x1c build/../../libmaple/wirish/comm/HardwareSerial.o
                0x080076a8                _ZN14HardwareSerial4readEv
 .text._ZN14HardwareSerial9availableEv
                0x080076c4       0x22 build/../../libmaple/wirish/comm/HardwareSerial.o
                0x080076c4                _ZN14HardwareSerial9availableEv
 .text._ZN14HardwareSerial5flushEv
                0x080076e6        0xa build/../../libmaple/wirish/comm/HardwareSerial.o
                0x080076e6                _ZN14HardwareSerial5flushEv
 .text._ZN14HardwareSerial5writeEh
                0x080076f0       0x1a build/../../libmaple/wirish/comm/HardwareSerial.o
                0x080076f0                _ZN14HardwareSerial5writeEh
 *fill*         0x0800770a        0x2 00
 .text._ZN14HardwareSerial5beginEj
                0x0800770c       0x8c build/../../libmaple/wirish/comm/HardwareSerial.o
                0x0800770c                _ZN14HardwareSerial5beginEj
 .text._GLOBAL__I_Serial1
                0x08007798       0x58 build/../../libmaple/wirish/comm/HardwareSerial.o
 .text.spi_is_rx_nonempty
                0x080077f0        0xa build/../../libmaple/wirish/comm/HardwareSPI.o
 .text._ZN11HardwareSPI4readEPhj
                0x080077fa       0x26 build/../../libmaple/wirish/comm/HardwareSPI.o
                0x080077fa                _ZN11HardwareSPI4readEPhj
 .text._ZN11HardwareSPI4readEv
                0x08007820       0x10 build/../../libmaple/wirish/comm/HardwareSPI.o
                0x08007820                _ZN11HardwareSPI4readEv
 .text._ZL15dev_to_spi_pinsP7spi_dev
                0x08007830       0x1c build/../../libmaple/wirish/comm/HardwareSPI.o
 .text._ZN11HardwareSPI6nssPinEv
                0x0800784c        0xc build/../../libmaple/wirish/comm/HardwareSPI.o
                0x0800784c                _ZN11HardwareSPI6nssPinEv
 .text._ZN11HardwareSPI5writeEPKhj
                0x08007858       0x1e build/../../libmaple/wirish/comm/HardwareSPI.o
                0x08007858                _ZN11HardwareSPI5writeEPKhj
 .text._ZN11HardwareSPI5writeEh
                0x08007876       0x12 build/../../libmaple/wirish/comm/HardwareSPI.o
                0x08007876                _ZN11HardwareSPI5writeEh
 .text._ZN11HardwareSPI4sendEPhj
                0x08007888       0x24 build/../../libmaple/wirish/comm/HardwareSPI.o
                0x08007888                _ZN11HardwareSPI4sendEPhj
 .text._ZN11HardwareSPI4sendEh
                0x080078ac       0x12 build/../../libmaple/wirish/comm/HardwareSPI.o
                0x080078ac                _ZN11HardwareSPI4sendEh
 *fill*         0x080078be        0x2 00
 .text._ZN11HardwareSPIC1Ej
                0x080078c0       0x38 build/../../libmaple/wirish/comm/HardwareSPI.o
                0x080078c0                _ZN11HardwareSPIC1Ej
 .text._ZL11disable_pwmPK14stm32_pin_info
                0x080078f8       0x10 build/../../libmaple/wirish/comm/HardwareSPI.o
 .text._ZL13enable_deviceP7spi_devb12SPIFrequency12spi_cfg_flag8spi_mode
                0x08007908      0x110 build/../../libmaple/wirish/comm/HardwareSPI.o
 .text._ZN11HardwareSPI5beginE12SPIFrequencyjj
                0x08007a18       0x3c build/../../libmaple/wirish/comm/HardwareSPI.o
                0x08007a18                _ZN11HardwareSPI5beginE12SPIFrequencyjj
 .text._ZN13HardwareTimerC1Eh
                0x08007a54       0x58 build/../../libmaple/wirish/HardwareTimer.o
                0x08007a54                _ZN13HardwareTimerC1Eh
 .text._GLOBAL__I__ZN13HardwareTimerC2Eh
                0x08007aac       0x38 build/../../libmaple/wirish/HardwareTimer.o
 .text._ZN9USBSerialC1Ev
                0x08007ae4       0x14 build/../../libmaple/wirish/usb_serial.o
                0x08007ae4                _ZN9USBSerialC1Ev
 .text._ZN9USBSerial5writeEh
                0x08007af8       0x14 build/../../libmaple/wirish/usb_serial.o
                0x08007af8                _ZN9USBSerial5writeEh
 .text._ZN9USBSerial6getRTSEv
                0x08007b0c        0x4 build/../../libmaple/wirish/usb_serial.o
                0x08007b0c                _ZN9USBSerial6getRTSEv
 .text._ZN9USBSerial6getDTREv
                0x08007b10        0x4 build/../../libmaple/wirish/usb_serial.o
                0x08007b10                _ZN9USBSerial6getDTREv
 .text._ZN9USBSerial11isConnectedEv
                0x08007b14       0x16 build/../../libmaple/wirish/usb_serial.o
                0x08007b14                _ZN9USBSerial11isConnectedEv
 .text._ZN9USBSerial4readEPvj
                0x08007b2a       0x22 build/../../libmaple/wirish/usb_serial.o
                0x08007b2a                _ZN9USBSerial4readEPvj
 .text._ZN9USBSerial4readEv
                0x08007b4c       0x12 build/../../libmaple/wirish/usb_serial.o
                0x08007b4c                _ZN9USBSerial4readEv
 .text._ZN9USBSerial9availableEv
                0x08007b5e        0x4 build/../../libmaple/wirish/usb_serial.o
                0x08007b5e                _ZN9USBSerial9availableEv
 *fill*         0x08007b62        0x2 00
 .text._ZN9USBSerial5writeEPKvj
                0x08007b64       0x58 build/../../libmaple/wirish/usb_serial.o
                0x08007b64                _ZN9USBSerial5writeEPKvj
 .text._ZN9USBSerial5writeEPKc
                0x08007bbc       0x1a build/../../libmaple/wirish/usb_serial.o
                0x08007bbc                _ZN9USBSerial5writeEPKc
 *fill*         0x08007bd6        0x2 00
 .text._ZN9USBSerial5beginEv
                0x08007bd8       0x10 build/../../libmaple/wirish/usb_serial.o
                0x08007bd8                _ZN9USBSerial5beginEv
 .text._GLOBAL__I__ZN9USBSerialC2Ev
                0x08007be8        0xc build/../../libmaple/wirish/usb_serial.o
 .text.__cxa_pure_virtual
                0x08007bf4        0x2 build/../../libmaple/wirish/cxxabi-compat.o
                0x08007bf4                __cxa_pure_virtual
 .text._Z17delayMicrosecondsj
                0x08007bf6        0xe build/../../libmaple/wirish/wirish_time.o
                0x08007bf6                _Z17delayMicrosecondsj
 .text._Z5delaym
                0x08007c04       0x18 build/../../libmaple/wirish/wirish_time.o
                0x08007c04                _Z5delaym
 .text._Z12digitalWritehh
                0x08007c1c       0x30 build/../../libmaple/wirish/wirish_digital.o
                0x08007c1c                _Z12digitalWritehh
 .text._Z9togglePinh
                0x08007c4c       0x24 build/../../libmaple/wirish/wirish_digital.o
                0x08007c4c                _Z9togglePinh
 .text._Z7pinModeh13WiringPinMode
                0x08007c70       0x88 build/../../libmaple/wirish/wirish_digital.o
                0x08007c70                _Z7pinModeh13WiringPinMode
 .text._ZN7TwoWireC1Ev
                0x08007cf8       0x20 build/../../libmaple/libraries/Wire/Wire.o
                0x08007cf8                _ZN7TwoWireC1Ev
 .text._GLOBAL__I_i2c_delay
                0x08007d18        0xc build/../../libmaple/libraries/Wire/Wire.o
 .text._ZN7Sd2Card5errorEh
                0x08007d24        0x4 build/../../libmaple/libraries/SDfat/Sd2Card.o
                0x08007d24                _ZN7Sd2Card5errorEh
 .text._ZN7Sd2Card4typeEh
                0x08007d28        0x4 build/../../libmaple/libraries/SDfat/Sd2Card.o
                0x08007d28                _ZN7Sd2Card4typeEh
 .text._ZL7spiSendh
                0x08007d2c       0x10 build/../../libmaple/libraries/SDfat/Sd2Card.o
 .text._ZL6spiRecv
                0x08007d3c       0x10 build/../../libmaple/libraries/SDfat/Sd2Card.o
 .text._ZN7Sd2Card11waitNotBusyEt
                0x08007d4c       0x2c build/../../libmaple/libraries/SDfat/Sd2Card.o
                0x08007d4c                _ZN7Sd2Card11waitNotBusyEt
 .text._ZN7Sd2Card13chipSelectLowEv
                0x08007d78       0x18 build/../../libmaple/libraries/SDfat/Sd2Card.o
                0x08007d78                _ZN7Sd2Card13chipSelectLowEv
 .text._ZN7Sd2Card14chipSelectHighEv
                0x08007d90       0x18 build/../../libmaple/libraries/SDfat/Sd2Card.o
                0x08007d90                _ZN7Sd2Card14chipSelectHighEv
 .text._ZN7Sd2Card9writeDataEhPKh
                0x08007da8       0x68 build/../../libmaple/libraries/SDfat/Sd2Card.o
                0x08007da8                _ZN7Sd2Card9writeDataEhPKh
 .text._ZN7Sd2Card14waitStartBlockEv
                0x08007e10       0x70 build/../../libmaple/libraries/SDfat/Sd2Card.o
                0x08007e10                _ZN7Sd2Card14waitStartBlockEv
 .text._ZN7Sd2Card7readEndEv
                0x08007e80       0x28 build/../../libmaple/libraries/SDfat/Sd2Card.o
                0x08007e80                _ZN7Sd2Card7readEndEv
 .text._ZN7Sd2Card11cardCommandEhm
                0x08007ea8       0x6a build/../../libmaple/libraries/SDfat/Sd2Card.o
                0x08007ea8                _ZN7Sd2Card11cardCommandEhm
 .text._ZN7Sd2Card8cardAcmdEhm
                0x08007f12       0x1e build/../../libmaple/libraries/SDfat/Sd2Card.o
                0x08007f12                _ZN7Sd2Card8cardAcmdEhm
 .text._ZN7Sd2Card10writeBlockEmPKh
                0x08007f30       0xb8 build/../../libmaple/libraries/SDfat/Sd2Card.o
                0x08007f30                _ZN7Sd2Card10writeBlockEmPKh
 .text._ZN7Sd2Card8readDataEmttPh
                0x08007fe8       0xd0 build/../../libmaple/libraries/SDfat/Sd2Card.o
                0x08007fe8                _ZN7Sd2Card8readDataEmttPh
 .text._ZN7Sd2Card9readBlockEmPh
                0x080080b8       0x10 build/../../libmaple/libraries/SDfat/Sd2Card.o
                0x080080b8                _ZN7Sd2Card9readBlockEmPh
 .text._ZN7Sd2Card4initEP11HardwareSPI
                0x080080c8      0x170 build/../../libmaple/libraries/SDfat/Sd2Card.o
                0x080080c8                _ZN7Sd2Card4initEP11HardwareSPI
 .text._ZL13DIR_IS_SUBDIRPK14directoryEntry
                0x08008238       0x10 build/../../libmaple/libraries/SDfat/SdFile.o
 .text._ZL21DIR_IS_FILE_OR_SUBDIRPK14directoryEntry
                0x08008248        0xe build/../../libmaple/libraries/SDfat/SdFile.o
 *fill*         0x08008256        0x2 00
 .text._ZN6SdFileC1Ev
                0x08008258       0x18 build/../../libmaple/libraries/SDfat/SdFile.o
                0x08008258                _ZN6SdFileC1Ev
 .text._ZNK6SdFile5isDirEv
                0x08008270        0xc build/../../libmaple/libraries/SDfat/SdFile.o
                0x08008270                _ZNK6SdFile5isDirEv
 .text._ZNK6SdFile6isFileEv
                0x0800827c        0xc build/../../libmaple/libraries/SDfat/SdFile.o
                0x0800827c                _ZNK6SdFile6isFileEv
 .text._ZNK6SdFile6isOpenEv
                0x08008288        0xa build/../../libmaple/libraries/SDfat/SdFile.o
                0x08008288                _ZNK6SdFile6isOpenEv
 .text._ZNK6SdFile8isSubDirEv
                0x08008292        0xc build/../../libmaple/libraries/SDfat/SdFile.o
                0x08008292                _ZNK6SdFile8isSubDirEv
 .text._ZNK6SdFile6isRootEv
                0x0800829e       0x10 build/../../libmaple/libraries/SDfat/SdFile.o
                0x0800829e                _ZNK6SdFile6isRootEv
 .text._ZN6SdFile6rewindEv
                0x080082ae        0x8 build/../../libmaple/libraries/SDfat/SdFile.o
                0x080082ae                _ZN6SdFile6rewindEv
 .text._ZNK6SdFile14unbufferedReadEv
                0x080082b6        0x8 build/../../libmaple/libraries/SDfat/SdFile.o
                0x080082b6                _ZNK6SdFile14unbufferedReadEv
 .text._ZNK8SdVolume14blockOfClusterEm
                0x080082be        0xc build/../../libmaple/libraries/SDfat/SdFile.o
                0x080082be                _ZNK8SdVolume14blockOfClusterEm
 .text._ZNK8SdVolume17clusterStartBlockEm
                0x080082ca        0xc build/../../libmaple/libraries/SDfat/SdFile.o
                0x080082ca                _ZNK8SdVolume17clusterStartBlockEm
 *fill*         0x080082d6        0x2 00
 .text._ZN8SdVolume13cacheSetDirtyEv
                0x080082d8       0x10 build/../../libmaple/libraries/SDfat/SdFile.o
                0x080082d8                _ZN8SdVolume13cacheSetDirtyEv
 .text._ZNK8SdVolume5isEOCEm
                0x080082e8       0x20 build/../../libmaple/libraries/SDfat/SdFile.o
                0x080082e8                _ZNK8SdVolume5isEOCEm
 .text._ZN6SdFile10make83NameEPKcPh
                0x08008308       0x94 build/../../libmaple/libraries/SDfat/SdFile.o
                0x08008308                _ZN6SdFile10make83NameEPKcPh
 .text._ZN6SdFile7seekSetEm
                0x0800839c       0x68 build/../../libmaple/libraries/SDfat/SdFile.o
                0x0800839c                _ZN6SdFile7seekSetEm
 .text._ZN6SdFile7seekEndEv
                0x08008404        0x6 build/../../libmaple/libraries/SDfat/SdFile.o
                0x08008404                _ZN6SdFile7seekEndEv
 *fill*         0x0800840a        0x2 00
 .text._ZN6SdFile13cacheDirEntryEh
                0x0800840c       0x1c build/../../libmaple/libraries/SDfat/SdFile.o
                0x0800840c                _ZN6SdFile13cacheDirEntryEh
 .text._ZN6SdFile4syncEv
                0x08008428       0x80 build/../../libmaple/libraries/SDfat/SdFile.o
                0x08008428                _ZN6SdFile4syncEv
 .text._ZN6SdFile5closeEv
                0x080084a8       0x14 build/../../libmaple/libraries/SDfat/SdFile.o
                0x080084a8                _ZN6SdFile5closeEv
 .text._ZN8SdVolume10writeBlockEmPKh
                0x080084bc        0xc build/../../libmaple/libraries/SDfat/SdFile.o
                0x080084bc                _ZN8SdVolume10writeBlockEmPKh
 .text._ZN8SdVolume9fatPutEOCEm
                0x080084c8        0x8 build/../../libmaple/libraries/SDfat/SdFile.o
                0x080084c8                _ZN8SdVolume9fatPutEOCEm
 .text._ZN6SdFile8truncateEm
                0x080084d0       0x98 build/../../libmaple/libraries/SDfat/SdFile.o
                0x080084d0                _ZN6SdFile8truncateEm
 .text._ZN6SdFile6removeEv
                0x08008568       0x2c build/../../libmaple/libraries/SDfat/SdFile.o
                0x08008568                _ZN6SdFile6removeEv
 .text._ZN8SdVolume8readDataEmttPh
                0x08008594        0xc build/../../libmaple/libraries/SDfat/SdFile.o
                0x08008594                _ZN8SdVolume8readDataEmttPh
 .text._ZN6SdFile4readEPvt
                0x080085a0      0x10c build/../../libmaple/libraries/SDfat/SdFile.o
                0x080085a0                _ZN6SdFile4readEPvt
 .text._ZN6SdFile4readEv
                0x080086ac       0x1e build/../../libmaple/libraries/SDfat/SdFile.o
                0x080086ac                _ZN6SdFile4readEv
 *fill*         0x080086ca        0x2 00
 .text._ZN6SdFile12readDirCacheEv
                0x080086cc       0x30 build/../../libmaple/libraries/SDfat/SdFile.o
                0x080086cc                _ZN6SdFile12readDirCacheEv
 .text._ZN6SdFile5rmDirEv
                0x080086fc       0x50 build/../../libmaple/libraries/SDfat/SdFile.o
                0x080086fc                _ZN6SdFile5rmDirEv
 .text._ZN6SdFile14printTwoDigitsEh
                0x0800874c       0x30 build/../../libmaple/libraries/SDfat/SdFile.o
                0x0800874c                _ZN6SdFile14printTwoDigitsEh
 .text._ZN6SdFile12printFatTimeEt
                0x0800877c       0x38 build/../../libmaple/libraries/SDfat/SdFile.o
                0x0800877c                _ZN6SdFile12printFatTimeEt
 .text._ZN6SdFile12printDirNameERK14directoryEntryh
                0x080087b4       0x58 build/../../libmaple/libraries/SDfat/SdFile.o
                0x080087b4                _ZN6SdFile12printDirNameERK14directoryEntryh
 .text._ZN6SdFile12printFatDateEt
                0x0800880c       0x40 build/../../libmaple/libraries/SDfat/SdFile.o
                0x0800880c                _ZN6SdFile12printFatDateEt
 .text._ZN6SdFile8openRootEP8SdVolume
                0x0800884c       0x50 build/../../libmaple/libraries/SDfat/SdFile.o
                0x0800884c                _ZN6SdFile8openRootEP8SdVolume
 .text._ZN6SdFile15openCachedEntryEhh
                0x0800889c       0x9c build/../../libmaple/libraries/SDfat/SdFile.o
                0x0800889c                _ZN6SdFile15openCachedEntryEhh
 .text._ZN6SdFile4openEPS_th
                0x08008938       0x52 build/../../libmaple/libraries/SDfat/SdFile.o
                0x08008938                _ZN6SdFile4openEPS_th
 .text._ZN6SdFile8rmRfStarEv
                0x0800898a       0x9e build/../../libmaple/libraries/SDfat/SdFile.o
                0x0800898a                _ZN6SdFile8rmRfStarEv
 .text._ZN6SdFile2lsEhh
                0x08008a28      0x100 build/../../libmaple/libraries/SDfat/SdFile.o
                0x08008a28                _ZN6SdFile2lsEhh
 .text._ZN6SdFile10addClusterEv
                0x08008b28       0x30 build/../../libmaple/libraries/SDfat/SdFile.o
                0x08008b28                _ZN6SdFile10addClusterEv
 .text._ZN6SdFile5writeEPKvt
                0x08008b58      0x16c build/../../libmaple/libraries/SDfat/SdFile.o
                0x08008b58                _ZN6SdFile5writeEPKvt
 .text._ZN6SdFile5writeEPKc
                0x08008cc4       0x1a build/../../libmaple/libraries/SDfat/SdFile.o
                0x08008cc4                _ZN6SdFile5writeEPKc
 .text._ZN6SdFile5writeEh
                0x08008cde       0x12 build/../../libmaple/libraries/SDfat/SdFile.o
                0x08008cde                _ZN6SdFile5writeEh
 .text._ZN6SdFile13addDirClusterEv
                0x08008cf0       0x46 build/../../libmaple/libraries/SDfat/SdFile.o
                0x08008cf0                _ZN6SdFile13addDirClusterEv
 *fill*         0x08008d36        0x2 00
 .text._ZN6SdFile4openEPS_PKch
                0x08008d38      0x130 build/../../libmaple/libraries/SDfat/SdFile.o
                0x08008d38                _ZN6SdFile4openEPS_PKch
 .text._ZN6SdFile6removeEPS_PKc
                0x08008e68       0x28 build/../../libmaple/libraries/SDfat/SdFile.o
                0x08008e68                _ZN6SdFile6removeEPS_PKc
 .text._ZN8SdVolume10cacheFlushEv
                0x08008e90       0x50 build/../../libmaple/libraries/SDfat/SdVolume.o
                0x08008e90                _ZN8SdVolume10cacheFlushEv
 .text._ZN8SdVolume14cacheZeroBlockEm
                0x08008ee0       0x30 build/../../libmaple/libraries/SDfat/SdVolume.o
                0x08008ee0                _ZN8SdVolume14cacheZeroBlockEm
 .text._ZN8SdVolume13cacheRawBlockEmh
                0x08008f10       0x44 build/../../libmaple/libraries/SDfat/SdVolume.o
                0x08008f10                _ZN8SdVolume13cacheRawBlockEmh
 .text._ZN8SdVolume4initEP7Sd2Cardh
                0x08008f54      0x154 build/../../libmaple/libraries/SDfat/SdVolume.o
                0x08008f54                _ZN8SdVolume4initEP7Sd2Cardh
 .text._ZN8SdVolume6fatPutEmm
                0x080090a8       0x78 build/../../libmaple/libraries/SDfat/SdVolume.o
                0x080090a8                _ZN8SdVolume6fatPutEmm
 .text._ZNK8SdVolume6fatGetEmPm
                0x08009120       0x64 build/../../libmaple/libraries/SDfat/SdVolume.o
                0x08009120                _ZNK8SdVolume6fatGetEmPm
 .text._ZN8SdVolume9freeChainEm
                0x08009184       0x38 build/../../libmaple/libraries/SDfat/SdVolume.o
                0x08009184                _ZN8SdVolume9freeChainEm
 .text._ZNK8SdVolume9chainSizeEmPm
                0x080091bc       0x34 build/../../libmaple/libraries/SDfat/SdVolume.o
                0x080091bc                _ZNK8SdVolume9chainSizeEmPm
 .text._ZN8SdVolume15allocContiguousEmPm
                0x080091f0       0xaa build/../../libmaple/libraries/SDfat/SdVolume.o
                0x080091f0                _ZN8SdVolume15allocContiguousEmPm
 .text._Z11isErrorOrOKPc
                0x0800929a       0x44 build/main.o
                0x0800929a                _Z11isErrorOrOKPc
 *fill*         0x080092de        0x2 00
 .text._Z11monthNumberPc
                0x080092e0       0x34 build/main.o
                0x080092e0                _Z11monthNumberPc
 .text._Z9parseDatePcS_
                0x08009314       0x6c build/main.o
                0x08009314                _Z9parseDatePcS_
 .text._Z7premainv
                0x08009380        0x4 build/main.o
                0x08009380                _Z7premainv
 .text._Z11lookupIndexPc
                0x08009384       0x40 build/main.o
                0x08009384                _Z11lookupIndexPc
 .text._Z9stripcrlfPc
                0x080093c4       0x20 build/main.o
                0x080093c4                _Z9stripcrlfPc
 .text._ZN10DataStream4readEv
                0x080093e4       0x10 build/main.o
                0x080093e4                _ZN10DataStream4readEv
 .text._ZN10DataStream9availableEv
                0x080093f4       0x22 build/main.o
                0x080093f4                _ZN10DataStream9availableEv
 *fill*         0x08009416        0x2 00
 .text._ZN10DataStream7gotLineEj
                0x08009418       0xb4 build/main.o
                0x08009418                _ZN10DataStream7gotLineEj
 .text._ZN10DataStream7putCharEc
                0x080094cc       0x38 build/main.o
                0x080094cc                _ZN10DataStream7putCharEc
 .text._ZN10DataStream4putsEPc
                0x08009504       0x34 build/main.o
                0x08009504                _ZN10DataStream4putsEPc
 .text._ZN10DataStream6printfEPKcz
                0x08009538       0x2c build/main.o
                0x08009538                _ZN10DataStream6printfEPKcz
 .text._Z13writeSettingsv
                0x08009564       0xdc build/main.o
                0x08009564                _Z13writeSettingsv
 .text._Z8typeFilePc
                0x08009640       0xa0 build/main.o
                0x08009640                _Z8typeFilePc
 .text._Z7logDataPc
                0x080096e0       0x44 build/main.o
                0x080096e0                _Z7logDataPc
 .text._ZN10DataStreamC1EP5Printi
                0x08009724       0x38 build/main.o
                0x08009724                _ZN10DataStreamC1EP5Printi
 .text.T.178    0x0800975c       0x20 build/main.o
 .text._Z11networkScanv
                0x0800977c      0x100 build/main.o
                0x0800977c                _Z11networkScanv
 .text._Z9radioDatev
                0x0800987c       0xa0 build/main.o
                0x0800987c                _Z9radioDatev
 .text._Z9toPachubeiPc
                0x0800991c      0x294 build/main.o
                0x0800991c                _Z9toPachubeiPc
 .text._Z17clearStowedValuesv
                0x08009bb0       0x6c build/main.o
                0x08009bb0                _Z17clearStowedValuesv
 .text._Z17handleDeviceInputv
                0x08009c1c      0x200 build/main.o
                0x08009c1c                _Z17handleDeviceInputv
 .text._Z11pachubeDatev
                0x08009e1c      0x2cc build/main.o
                0x08009e1c                _Z11pachubeDatev
 .text._Z18networkSetPasswordPc
                0x0800a0e8       0x5c build/main.o
                0x0800a0e8                _Z18networkSetPasswordPc
 .text._Z13networkStatusv
                0x0800a144       0x78 build/main.o
                0x0800a144                _Z13networkStatusv
 .text._Z11networkJoinPc
                0x0800a1bc       0xcc build/main.o
                0x0800a1bc                _Z11networkJoinPc
 .text._Z16setupRadioModulev
                0x0800a288       0x78 build/main.o
                0x0800a288                _Z16setupRadioModulev
 .text.T.181    0x0800a300       0x14 build/main.o
 .text._Z12readSettingsv
                0x0800a314       0xfc build/main.o
                0x0800a314                _Z12readSettingsv
 .text._Z5setupv
                0x0800a410      0x224 build/main.o
                0x0800a410                _Z5setupv
 .text._Z18handleConsoleInputv
                0x0800a634      0x2c0 build/main.o
                0x0800a634                _Z18handleConsoleInputv
 .text._Z4loopv
                0x0800a8f4      0x100 build/main.o
                0x0800a8f4                _Z4loopv
 .text.main     0x0800a9f4        0xc build/main.o
                0x0800a9f4                main
 .text._GLOBAL__I_spi
                0x0800aa00       0x94 build/main.o
 .text          0x0800aa94      0x370 /Applications/MapleIDE.app/Contents/Resources/Java/hardware/tools/arm/bin/../lib/gcc/arm-none-eabi/4.4.1/thumb2/libgcc.a(_arm_addsubdf3.o)
                0x0800aa94                __aeabi_drsub
                0x0800aa9c                __subdf3
                0x0800aa9c                __aeabi_dsub
                0x0800aaa0                __aeabi_dadd
                0x0800aaa0                __adddf3
                0x0800ad18                __aeabi_ui2d
                0x0800ad18                __floatunsidf
                0x0800ad38                __floatsidf
                0x0800ad38                __aeabi_i2d
                0x0800ad5c                __extendsfdf2
                0x0800ad5c                __aeabi_f2d
                0x0800ad98                __aeabi_ul2d
                0x0800ad98                __floatundidf
                0x0800ada8                __aeabi_l2d
                0x0800ada8                __floatdidf
 .text          0x0800ae04      0x424 /Applications/MapleIDE.app/Contents/Resources/Java/hardware/tools/arm/bin/../lib/gcc/arm-none-eabi/4.4.1/thumb2/libgcc.a(_arm_muldivdf3.o)
                0x0800ae04                __aeabi_dmul
                0x0800ae04                __muldf3
                0x0800b058                __aeabi_ddiv
                0x0800b058                __divdf3
 .text          0x0800b228      0x110 /Applications/MapleIDE.app/Contents/Resources/Java/hardware/tools/arm/bin/../lib/gcc/arm-none-eabi/4.4.1/thumb2/libgcc.a(_arm_cmpdf2.o)
                0x0800b228                __gtdf2
                0x0800b228                __gedf2
                0x0800b230                __ltdf2
                0x0800b230                __ledf2
                0x0800b238                __eqdf2
                0x0800b238                __nedf2
                0x0800b238                __cmpdf2
                0x0800b2b4                __aeabi_cdrcmple
                0x0800b2c4                __aeabi_cdcmple
                0x0800b2c4                __aeabi_cdcmpeq
                0x0800b2d4                __aeabi_dcmpeq
                0x0800b2e8                __aeabi_dcmplt
                0x0800b2fc                __aeabi_dcmple
                0x0800b310                __aeabi_dcmpge
                0x0800b324                __aeabi_dcmpgt
 .text          0x0800b338       0x50 /Applications/MapleIDE.app/Contents/Resources/Java/hardware/tools/arm/bin/../lib/gcc/arm-none-eabi/4.4.1/thumb2/libgcc.a(_arm_fixdfsi.o)
                0x0800b338                __fixdfsi
                0x0800b338                __aeabi_d2iz
 .text          0x0800b388       0x38 /Applications/MapleIDE.app/Contents/Resources/Java/hardware/tools/arm/bin/../lib/gcc/arm-none-eabi/4.4.1/thumb2/libgcc.a(_aeabi_ldivmod.o)
                0x0800b388                __aeabi_ldivmod
 .text          0x0800b3c0       0x2c /Applications/MapleIDE.app/Contents/Resources/Java/hardware/tools/arm/bin/../lib/gcc/arm-none-eabi/4.4.1/thumb2/libgcc.a(_aeabi_uldivmod.o)
                0x0800b3c0                __aeabi_uldivmod
 .text          0x0800b3ec       0x58 /Applications/MapleIDE.app/Contents/Resources/Java/hardware/tools/arm/bin/../lib/gcc/arm-none-eabi/4.4.1/thumb2/libgcc.a(bpabi.o)
                0x0800b3ec                __gnu_uldivmod_helper
                0x0800b418                __gnu_ldivmod_helper
 .text          0x0800b444        0x4 /Applications/MapleIDE.app/Contents/Resources/Java/hardware/tools/arm/bin/../lib/gcc/arm-none-eabi/4.4.1/thumb2/libgcc.a(_dvmd_tls.o)
                0x0800b444                __aeabi_ldiv0
                0x0800b444                __aeabi_idiv0
 .text          0x0800b448      0x364 /Applications/MapleIDE.app/Contents/Resources/Java/hardware/tools/arm/bin/../lib/gcc/arm-none-eabi/4.4.1/thumb2/libgcc.a(_divdi3.o)
                0x0800b448                __divdi3
 .text          0x0800b7ac      0x300 /Applications/MapleIDE.app/Contents/Resources/Java/hardware/tools/arm/bin/../lib/gcc/arm-none-eabi/4.4.1/thumb2/libgcc.a(_udivdi3.o)
                0x0800b7ac                __udivdi3
 *fill*         0x0800baac        0x4 00
 .text          0x0800bab0      0x278 /Applications/MapleIDE.app/Contents/Resources/Java/hardware/tools/arm/bin/../lib/gcc/arm-none-eabi/4.4.1/thumb2/libgcc.a(_udivsi3.o)
                0x0800bab0                __udivsi3
                0x0800bab0                __aeabi_uidiv
                0x0800bd0c                __aeabi_uidivmod
 .text.atoi     0x0800bd28        0x8 /Applications/MapleIDE.app/Contents/Resources/Java/hardware/tools/arm/bin/../lib/gcc/arm-none-eabi/4.4.1/../../../../arm-none-eabi/lib/thumb2/libc.a(lib_a-atoi.o)
                0x0800bd28                atoi
 .text.atoll    0x0800bd30        0x8 /Applications/MapleIDE.app/Contents/Resources/Java/hardware/tools/arm/bin/../lib/gcc/arm-none-eabi/4.4.1/../../../../arm-none-eabi/lib/thumb2/libc.a(lib_a-atoll.o)
                0x0800bd30                atoll
 .text.__errno  0x0800bd38        0xc /Applications/MapleIDE.app/Contents/Resources/Java/hardware/tools/arm/bin/../lib/gcc/arm-none-eabi/4.4.1/../../../../arm-none-eabi/lib/thumb2/libc.a(lib_a-errno.o)
                0x0800bd38                __errno
 .text.memcmp   0x0800bd44       0x22 /Applications/MapleIDE.app/Contents/Resources/Java/hardware/tools/arm/bin/../lib/gcc/arm-none-eabi/4.4.1/../../../../arm-none-eabi/lib/thumb2/libc.a(lib_a-memcmp.o)
                0x0800bd44                memcmp
 .text.memcpy   0x0800bd66       0x1a /Applications/MapleIDE.app/Contents/Resources/Java/hardware/tools/arm/bin/../lib/gcc/arm-none-eabi/4.4.1/../../../../arm-none-eabi/lib/thumb2/libc.a(lib_a-memcpy.o)
                0x0800bd66                memcpy
 .text.memset   0x0800bd80       0x12 /Applications/MapleIDE.app/Contents/Resources/Java/hardware/tools/arm/bin/../lib/gcc/arm-none-eabi/4.4.1/../../../../arm-none-eabi/lib/thumb2/libc.a(lib_a-memset.o)
                0x0800bd80                memset
 *fill*         0x0800bd92        0x2 00
 .text.snprintf
                0x0800bd94       0x68 /Applications/MapleIDE.app/Contents/Resources/Java/hardware/tools/arm/bin/../lib/gcc/arm-none-eabi/4.4.1/../../../../arm-none-eabi/lib/thumb2/libc.a(lib_a-snprintf.o)
                0x0800bd94                snprintf
 .text.sprintf  0x0800bdfc       0x48 /Applications/MapleIDE.app/Contents/Resources/Java/hardware/tools/arm/bin/../lib/gcc/arm-none-eabi/4.4.1/../../../../arm-none-eabi/lib/thumb2/libc.a(lib_a-sprintf.o)
                0x0800bdfc                sprintf
 .text.strchr   0x0800be44       0x18 /Applications/MapleIDE.app/Contents/Resources/Java/hardware/tools/arm/bin/../lib/gcc/arm-none-eabi/4.4.1/../../../../arm-none-eabi/lib/thumb2/libc.a(lib_a-strchr.o)
                0x0800be44                strchr
 .text.strcpy   0x0800be5c       0x10 /Applications/MapleIDE.app/Contents/Resources/Java/hardware/tools/arm/bin/../lib/gcc/arm-none-eabi/4.4.1/../../../../arm-none-eabi/lib/thumb2/libc.a(lib_a-strcpy.o)
                0x0800be5c                strcpy
 .text.strlen   0x0800be6c       0x10 /Applications/MapleIDE.app/Contents/Resources/Java/hardware/tools/arm/bin/../lib/gcc/arm-none-eabi/4.4.1/../../../../arm-none-eabi/lib/thumb2/libc.a(lib_a-strlen.o)
                0x0800be6c                strlen
 .text.strncmp  0x0800be7c       0x2e /Applications/MapleIDE.app/Contents/Resources/Java/hardware/tools/arm/bin/../lib/gcc/arm-none-eabi/4.4.1/../../../../arm-none-eabi/lib/thumb2/libc.a(lib_a-strncmp.o)
                0x0800be7c                strncmp
 .text.strncpy  0x0800beaa       0x30 /Applications/MapleIDE.app/Contents/Resources/Java/hardware/tools/arm/bin/../lib/gcc/arm-none-eabi/4.4.1/../../../../arm-none-eabi/lib/thumb2/libc.a(lib_a-strncpy.o)
                0x0800beaa                strncpy
 *fill*         0x0800beda        0x2 00
 .text._strtol_r
                0x0800bedc      0x124 /Applications/MapleIDE.app/Contents/Resources/Java/hardware/tools/arm/bin/../lib/gcc/arm-none-eabi/4.4.1/../../../../arm-none-eabi/lib/thumb2/libc.a(lib_a-strtol.o)
                0x0800bedc                _strtol_r
 .text.strtol   0x0800c000       0x1c /Applications/MapleIDE.app/Contents/Resources/Java/hardware/tools/arm/bin/../lib/gcc/arm-none-eabi/4.4.1/../../../../arm-none-eabi/lib/thumb2/libc.a(lib_a-strtol.o)
                0x0800c000                strtol
 .text.strtoll  0x0800c01c       0x1c /Applications/MapleIDE.app/Contents/Resources/Java/hardware/tools/arm/bin/../lib/gcc/arm-none-eabi/4.4.1/../../../../arm-none-eabi/lib/thumb2/libc.a(lib_a-strtoll.o)
                0x0800c01c                strtoll
 .text._strtoll_r
                0x0800c038      0x17c /Applications/MapleIDE.app/Contents/Resources/Java/hardware/tools/arm/bin/../lib/gcc/arm-none-eabi/4.4.1/../../../../arm-none-eabi/lib/thumb2/libc.a(lib_a-strtoll_r.o)
                0x0800c038                _strtoll_r
 .text.__sprint_r
                0x0800c1b4       0xf4 /Applications/MapleIDE.app/Contents/Resources/Java/hardware/tools/arm/bin/../lib/gcc/arm-none-eabi/4.4.1/../../../../arm-none-eabi/lib/thumb2/libc.a(lib_a-svfprintf.o)
 .text._svfprintf_r
                0x0800c2a8      0xf00 /Applications/MapleIDE.app/Contents/Resources/Java/hardware/tools/arm/bin/../lib/gcc/arm-none-eabi/4.4.1/../../../../arm-none-eabi/lib/thumb2/libc.a(lib_a-svfprintf.o)
                0x0800c2a8                _svfprintf_r
 .text.toupper  0x0800d1a8       0x18 /Applications/MapleIDE.app/Contents/Resources/Java/hardware/tools/arm/bin/../lib/gcc/arm-none-eabi/4.4.1/../../../../arm-none-eabi/lib/thumb2/libc.a(lib_a-toupper.o)
                0x0800d1a8                toupper
 .text._vsnprintf_r
                0x0800d1c0       0x56 /Applications/MapleIDE.app/Contents/Resources/Java/hardware/tools/arm/bin/../lib/gcc/arm-none-eabi/4.4.1/../../../../arm-none-eabi/lib/thumb2/libc.a(lib_a-vsnprintf.o)
                0x0800d1c0                _vsnprintf_r
 *fill*         0x0800d216        0x2 00
 .text.vsnprintf
                0x0800d218       0x20 /Applications/MapleIDE.app/Contents/Resources/Java/hardware/tools/arm/bin/../lib/gcc/arm-none-eabi/4.4.1/../../../../arm-none-eabi/lib/thumb2/libc.a(lib_a-vsnprintf.o)
                0x0800d218                vsnprintf
 .text.quorem   0x0800d238      0x116 /Applications/MapleIDE.app/Contents/Resources/Java/hardware/tools/arm/bin/../lib/gcc/arm-none-eabi/4.4.1/../../../../arm-none-eabi/lib/thumb2/libc.a(lib_a-dtoa.o)
 *fill*         0x0800d34e        0x2 00
 .text._dtoa_r  0x0800d350      0xb88 /Applications/MapleIDE.app/Contents/Resources/Java/hardware/tools/arm/bin/../lib/gcc/arm-none-eabi/4.4.1/../../../../arm-none-eabi/lib/thumb2/libc.a(lib_a-dtoa.o)
                0x0800d350                _dtoa_r
 .text._malloc_trim_r
                0x0800ded8       0x98 /Applications/MapleIDE.app/Contents/Resources/Java/hardware/tools/arm/bin/../lib/gcc/arm-none-eabi/4.4.1/../../../../arm-none-eabi/lib/thumb2/libc.a(lib_a-freer.o)
                0x0800ded8                _malloc_trim_r
 .text._free_r  0x0800df70      0x19c /Applications/MapleIDE.app/Contents/Resources/Java/hardware/tools/arm/bin/../lib/gcc/arm-none-eabi/4.4.1/../../../../arm-none-eabi/lib/thumb2/libc.a(lib_a-freer.o)
                0x0800df70                _free_r
 .text._localeconv_r
                0x0800e10c        0x8 /Applications/MapleIDE.app/Contents/Resources/Java/hardware/tools/arm/bin/../lib/gcc/arm-none-eabi/4.4.1/../../../../arm-none-eabi/lib/thumb2/libc.a(lib_a-locale.o)
                0x0800e10c                _localeconv_r
 .text.malloc   0x0800e114       0x10 /Applications/MapleIDE.app/Contents/Resources/Java/hardware/tools/arm/bin/../lib/gcc/arm-none-eabi/4.4.1/../../../../arm-none-eabi/lib/thumb2/libc.a(lib_a-malloc.o)
                0x0800e114                malloc
 .text._malloc_r
                0x0800e124      0x424 /Applications/MapleIDE.app/Contents/Resources/Java/hardware/tools/arm/bin/../lib/gcc/arm-none-eabi/4.4.1/../../../../arm-none-eabi/lib/thumb2/libc.a(lib_a-mallocr.o)
                0x0800e124                _malloc_r
 .text.memchr   0x0800e548       0x16 /Applications/MapleIDE.app/Contents/Resources/Java/hardware/tools/arm/bin/../lib/gcc/arm-none-eabi/4.4.1/../../../../arm-none-eabi/lib/thumb2/libc.a(lib_a-memchr.o)
                0x0800e548                memchr
 .text.memmove  0x0800e55e       0x3a /Applications/MapleIDE.app/Contents/Resources/Java/hardware/tools/arm/bin/../lib/gcc/arm-none-eabi/4.4.1/../../../../arm-none-eabi/lib/thumb2/libc.a(lib_a-memmove.o)
                0x0800e55e                memmove
 .text.__malloc_lock
                0x0800e598        0x2 /Applications/MapleIDE.app/Contents/Resources/Java/hardware/tools/arm/bin/../lib/gcc/arm-none-eabi/4.4.1/../../../../arm-none-eabi/lib/thumb2/libc.a(lib_a-mlock.o)
                0x0800e598                __malloc_lock
 .text.__malloc_unlock
                0x0800e59a        0x2 /Applications/MapleIDE.app/Contents/Resources/Java/hardware/tools/arm/bin/../lib/gcc/arm-none-eabi/4.4.1/../../../../arm-none-eabi/lib/thumb2/libc.a(lib_a-mlock.o)
                0x0800e59a                __malloc_unlock
 .text.__hi0bits
                0x0800e59c       0x40 /Applications/MapleIDE.app/Contents/Resources/Java/hardware/tools/arm/bin/../lib/gcc/arm-none-eabi/4.4.1/../../../../arm-none-eabi/lib/thumb2/libc.a(lib_a-mprec.o)
                0x0800e59c                __hi0bits
 .text.__lo0bits
                0x0800e5dc       0x64 /Applications/MapleIDE.app/Contents/Resources/Java/hardware/tools/arm/bin/../lib/gcc/arm-none-eabi/4.4.1/../../../../arm-none-eabi/lib/thumb2/libc.a(lib_a-mprec.o)
                0x0800e5dc                __lo0bits
 .text.__mcmp   0x0800e640       0x3e /Applications/MapleIDE.app/Contents/Resources/Java/hardware/tools/arm/bin/../lib/gcc/arm-none-eabi/4.4.1/../../../../arm-none-eabi/lib/thumb2/libc.a(lib_a-mprec.o)
                0x0800e640                __mcmp
 .text._Bfree   0x0800e67e       0x2e /Applications/MapleIDE.app/Contents/Resources/Java/hardware/tools/arm/bin/../lib/gcc/arm-none-eabi/4.4.1/../../../../arm-none-eabi/lib/thumb2/libc.a(lib_a-mprec.o)
                0x0800e67e                _Bfree
 .text._Balloc  0x0800e6ac       0x66 /Applications/MapleIDE.app/Contents/Resources/Java/hardware/tools/arm/bin/../lib/gcc/arm-none-eabi/4.4.1/../../../../arm-none-eabi/lib/thumb2/libc.a(lib_a-mprec.o)
                0x0800e6ac                _Balloc
 .text.__d2b    0x0800e712       0xc2 /Applications/MapleIDE.app/Contents/Resources/Java/hardware/tools/arm/bin/../lib/gcc/arm-none-eabi/4.4.1/../../../../arm-none-eabi/lib/thumb2/libc.a(lib_a-mprec.o)
                0x0800e712                __d2b
 .text.__mdiff  0x0800e7d4       0xd0 /Applications/MapleIDE.app/Contents/Resources/Java/hardware/tools/arm/bin/../lib/gcc/arm-none-eabi/4.4.1/../../../../arm-none-eabi/lib/thumb2/libc.a(lib_a-mprec.o)
                0x0800e7d4                __mdiff
 .text.__lshift
                0x0800e8a4       0xa4 /Applications/MapleIDE.app/Contents/Resources/Java/hardware/tools/arm/bin/../lib/gcc/arm-none-eabi/4.4.1/../../../../arm-none-eabi/lib/thumb2/libc.a(lib_a-mprec.o)
                0x0800e8a4                __lshift
 .text.__multiply
                0x0800e948      0x122 /Applications/MapleIDE.app/Contents/Resources/Java/hardware/tools/arm/bin/../lib/gcc/arm-none-eabi/4.4.1/../../../../arm-none-eabi/lib/thumb2/libc.a(lib_a-mprec.o)
                0x0800e948                __multiply
 .text.__i2b    0x0800ea6a       0x12 /Applications/MapleIDE.app/Contents/Resources/Java/hardware/tools/arm/bin/../lib/gcc/arm-none-eabi/4.4.1/../../../../arm-none-eabi/lib/thumb2/libc.a(lib_a-mprec.o)
                0x0800ea6a                __i2b
 .text.__multadd
                0x0800ea7c       0x82 /Applications/MapleIDE.app/Contents/Resources/Java/hardware/tools/arm/bin/../lib/gcc/arm-none-eabi/4.4.1/../../../../arm-none-eabi/lib/thumb2/libc.a(lib_a-mprec.o)
                0x0800ea7c                __multadd
 *fill*         0x0800eafe        0x2 00
 .text.__pow5mult
                0x0800eb00       0xa4 /Applications/MapleIDE.app/Contents/Resources/Java/hardware/tools/arm/bin/../lib/gcc/arm-none-eabi/4.4.1/../../../../arm-none-eabi/lib/thumb2/libc.a(lib_a-mprec.o)
                0x0800eb00                __pow5mult
 .text._realloc_r
                0x0800eba4      0x2f4 /Applications/MapleIDE.app/Contents/Resources/Java/hardware/tools/arm/bin/../lib/gcc/arm-none-eabi/4.4.1/../../../../arm-none-eabi/lib/thumb2/libc.a(lib_a-reallocr.o)
                0x0800eba4                _realloc_r
 .text.__isinfd
                0x0800ee98       0x22 /Applications/MapleIDE.app/Contents/Resources/Java/hardware/tools/arm/bin/../lib/gcc/arm-none-eabi/4.4.1/../../../../arm-none-eabi/lib/thumb2/libc.a(lib_a-s_isinfd.o)
                0x0800ee98                __isinfd
 .text.__isnand
                0x0800eeba       0x1a /Applications/MapleIDE.app/Contents/Resources/Java/hardware/tools/arm/bin/../lib/gcc/arm-none-eabi/4.4.1/../../../../arm-none-eabi/lib/thumb2/libc.a(lib_a-s_isnand.o)
                0x0800eeba                __isnand
 .text._sbrk_r  0x0800eed4       0x24 /Applications/MapleIDE.app/Contents/Resources/Java/hardware/tools/arm/bin/../lib/gcc/arm-none-eabi/4.4.1/../../../../arm-none-eabi/lib/thumb2/libc.a(lib_a-sbrkr.o)
                0x0800eed4                _sbrk_r
 .text._calloc_r
                0x0800eef8       0x58 /Applications/MapleIDE.app/Contents/Resources/Java/hardware/tools/arm/bin/../lib/gcc/arm-none-eabi/4.4.1/../../../../arm-none-eabi/lib/thumb2/libc.a(lib_a-callocr.o)
                0x0800eef8                _calloc_r
 .text          0x0800ef50      0x2b0 /Applications/MapleIDE.app/Contents/Resources/Java/hardware/tools/arm/bin/../lib/gcc/arm-none-eabi/4.4.1/thumb2/libgcc.a(_divsi3.o)
                0x0800ef50                __aeabi_idiv
                0x0800ef50                __divsi3
                0x0800f1e4                __aeabi_idivmod
 .text          0x0800f200        0x2 ../../libmaple/support/ld/libcs3_stm32_med_density.a(stm32_isrs.o)
                0x0800f200                __irq_rcc
                0x0800f200                __exc_debug_monitor
                0x0800f200                __exc_svc
                0x0800f200                __irq_adc
                0x0800f200                __irq_can_rx1
                0x0800f200                __irq_spi2
                0x0800f200                __irq_can_sce
                0x0800f200                __irq_pvd
                0x0800f200                __irq_tamper
                0x0800f200                __default_handler
                0x0800f200                __irq_wwdg
                0x0800f200                __stm32reservedexception10
                0x0800f200                __irq_flash
                0x0800f200                __stm32reservedexception13
                0x0800f200                __irq_rtc
                0x0800f200                __irq_spi1
                0x0800f200                __stm32reservedexception7
                0x0800f200                __irq_usb_hp_can_tx
                0x0800f200                __irq_rtcalarm
                0x0800f200                __stm32reservedexception8
                0x0800f200                __exc_pendsv
                0x0800f200                __irq_usbwakeup
                0x0800f200                __stm32reservedexception9
 *fill*         0x0800f202        0x2 00
 .text          0x0800f204       0x10 ../../libmaple/support/ld/libcs3_stm32_med_density.a(start.o)
                0x0800f204                _start
 .text          0x0800f214       0xf4 ../../libmaple/support/ld/libcs3_stm32_med_density.a(start_c.o)
                0x0800f214                __cs3_start_c
 .text.__libc_init_array
                0x0800f308       0x4c /Applications/MapleIDE.app/Contents/Resources/Java/hardware/tools/arm/bin/../lib/gcc/arm-none-eabi/4.4.1/../../../../arm-none-eabi/lib/thumb2/libc.a(lib_a-init.o)
                0x0800f308                __libc_init_array
 *(.plt)
 *(.gnu.warning)
 *(.glue_7t)
 .glue_7t       0x00000000        0x0 linker stubs
 *(.glue_7)
 .glue_7        0x00000000        0x0 linker stubs
 *(.vfp11_veneer)
 .vfp11_veneer  0x00000000        0x0 linker stubs
 *(.ARM.extab* .gnu.linkonce.armextab.*)
 *(.gcc_except_table)
 *(.eh_frame_hdr)
 *(.eh_frame)
                0x0800f354                . = ALIGN (0x4)
 *(.init)
 .init          0x0800f354        0x4 /Applications/MapleIDE.app/Contents/Resources/Java/hardware/tools/arm/bin/../lib/gcc/arm-none-eabi/4.4.1/thumb2/crti.o
                0x0800f354                _init
 .init          0x0800f358        0x8 /Applications/MapleIDE.app/Contents/Resources/Java/hardware/tools/arm/bin/../lib/gcc/arm-none-eabi/4.4.1/thumb2/crtn.o
                0x0800f360                . = ALIGN (0x4)
                0x0800f360                __preinit_array_start = .
 *(.preinit_array)
                0x0800f360                __preinit_array_end = .
                0x0800f360                . = ALIGN (0x4)
                0x0800f360                __init_array_start = .
 *(SORT(.init_array.*))
 *(.init_array)
 .init_array    0x0800f360        0x4 /Applications/MapleIDE.app/Contents/Resources/Java/hardware/tools/arm/bin/../lib/gcc/arm-none-eabi/4.4.1/thumb2/crtbegin.o
 .init_array    0x0800f364        0x4 build/../../libmaple/wirish/boards/maple_mini.o
 .init_array    0x0800f368        0x4 build/../../libmaple/wirish/comm/HardwareSerial.o
 .init_array    0x0800f36c        0x4 build/../../libmaple/wirish/HardwareTimer.o
 .init_array    0x0800f370        0x4 build/../../libmaple/wirish/usb_serial.o
 .init_array    0x0800f374        0x4 build/../../libmaple/libraries/Wire/Wire.o
 .init_array    0x0800f378        0x8 build/main.o
                0x0800f380                __init_array_end = .
                0x0800f380                . = ALIGN (0x4)
 *crtbegin.o(.ctors)
 *(EXCLUDE_FILE(*crtend.o) .ctors)
 *(SORT(.ctors.*))
 *crtend.o(.ctors)
                0x0800f380                . = ALIGN (0x4)
 *(.fini)
 .fini          0x0800f380        0x4 /Applications/MapleIDE.app/Contents/Resources/Java/hardware/tools/arm/bin/../lib/gcc/arm-none-eabi/4.4.1/thumb2/crti.o
                0x0800f380                _fini
 .fini          0x0800f384        0x8 /Applications/MapleIDE.app/Contents/Resources/Java/hardware/tools/arm/bin/../lib/gcc/arm-none-eabi/4.4.1/thumb2/crtn.o
                0x0800f38c                . = ALIGN (0x4)
                0x0800f38c                __fini_array_start = .
 *(.fini_array)
 .fini_array    0x0800f38c        0x4 /Applications/MapleIDE.app/Contents/Resources/Java/hardware/tools/arm/bin/../lib/gcc/arm-none-eabi/4.4.1/thumb2/crtbegin.o
 *(SORT(.fini_array.*))
                0x0800f390                __fini_array_end = .
 *crtbegin.o(.dtors)
 *(EXCLUDE_FILE(*crtend.o) .dtors)
 *(SORT(.dtors.*))
 *crtend.o(.dtors)
                0x0800f390                . = ALIGN (0x4)
                0x0800f390                __cs3_regions = .
                0x0800f390        0x4 LONG 0x0
                0x0800f394        0x4 LONG 0x80103b0 __cs3_region_init_ram
                0x0800f398        0x4 LONG 0x20000c00 __cs3_region_start_ram
                0x0800f39c        0x4 LONG 0xb98 __cs3_region_init_size_ram
                0x0800f3a0        0x4 LONG 0x840 __cs3_region_zero_size_ram

.v4_bx          0x0800f3a4        0x0
 .v4_bx         0x00000000        0x0 linker stubs

.rodata         0x0800f3a8      0xff0
 *(.rodata .rodata.* .gnu.linkonce.r.*)
 .rodata.GPIOA  0x0800f3a8        0x4 build/../../libmaple/libmaple/gpio.o
                0x0800f3a8                GPIOA
 .rodata.GPIOB  0x0800f3ac        0x4 build/../../libmaple/libmaple/gpio.o
                0x0800f3ac                GPIOB
 .rodata.GPIOC  0x0800f3b0        0x4 build/../../libmaple/libmaple/gpio.o
                0x0800f3b0                GPIOC
 .rodata.enable_regs.1509
                0x0800f3b4        0xc build/../../libmaple/libmaple/rcc.o
 .rodata.str1.1
                0x0800f3c0       0x58 build/../../libmaple/libmaple/rcc.o
 .rodata.rcc_dev_table
                0x0800f418       0x34 build/../../libmaple/libmaple/rcc.o
 .rodata.masks.1537
                0x0800f44c       0x14 build/../../libmaple/libmaple/rcc.o
 .rodata.reset_regs.1520
                0x0800f460        0x8 build/../../libmaple/libmaple/rcc.o
 .rodata.str1.1
                0x0800f468       0x55 build/../../libmaple/libmaple/timer.o
                                 0x57 (size before relaxing)
 .rodata.str1.1
                0x0800f4bd       0x3f build/../../libmaple/libmaple/util.o
                                 0x42 (size before relaxing)
 .rodata.str1.1
                0x0800f4fc       0x36 build/../../libmaple/libmaple/usb/usb.o
 *fill*         0x0800f532        0x2 00
 .rodata.usbVcomDescriptor_iProduct
                0x0800f534       0x14 build/../../libmaple/libmaple/usb/usb_cdcacm.o
                0x0800f534                usbVcomDescriptor_iProduct
 .rodata.usbVcomDescriptor_Device
                0x0800f548       0x14 build/../../libmaple/libmaple/usb/usb_cdcacm.o
                0x0800f548                usbVcomDescriptor_Device
 .rodata.usbVcomDescriptor_Config
                0x0800f55c       0x44 build/../../libmaple/libmaple/usb/usb_cdcacm.o
                0x0800f55c                usbVcomDescriptor_Config
 .rodata.usbVcomDescriptor_iManufacturer
                0x0800f5a0       0x14 build/../../libmaple/libmaple/usb/usb_cdcacm.o
                0x0800f5a0                usbVcomDescriptor_iManufacturer
 .rodata.usbVcomDescriptor_LangID
                0x0800f5b4        0x4 build/../../libmaple/libmaple/usb/usb_cdcacm.o
                0x0800f5b4                usbVcomDescriptor_LangID
 .rodata._ZTV5Print
                0x0800f5b8       0x18 build/../../libmaple/wirish/Print.o
                0x0800f5b8                _ZTV5Print
 .rodata.str1.1
                0x0800f5d0       0x4d build/../../libmaple/wirish/comm/HardwareSerial.o
 *fill*         0x0800f61d        0x3 00
 .rodata._ZTV14HardwareSerial
                0x0800f620       0x18 build/../../libmaple/wirish/comm/HardwareSerial.o
                0x0800f620                _ZTV14HardwareSerial
 .rodata.str1.1
                0x0800f638       0x2b build/../../libmaple/wirish/comm/HardwareSPI.o
                                 0x2d (size before relaxing)
 *fill*         0x0800f663        0x1 00
 .rodata.CSWTCH.35
                0x0800f664        0x8 build/../../libmaple/wirish/comm/HardwareSPI.o
 .rodata.str1.1
                0x0800f66c       0x28 build/../../libmaple/wirish/HardwareTimer.o
                                 0x2a (size before relaxing)
 *fill*         0x0800f694        0x4 00
 .rodata._ZTV9USBSerial
                0x0800f698       0x18 build/../../libmaple/wirish/usb_serial.o
                0x0800f698                _ZTV9USBSerial
 .rodata.str1.1
                0x0800f6b0       0x29 build/../../libmaple/wirish/wirish_digital.o
                                 0x2b (size before relaxing)
 .rodata.str1.1
                0x0800f6d9      0x232 build/../../libmaple/libraries/SDfat/Sd2Card.o
 .rodata        0x0800f90b       0x11 build/../../libmaple/libraries/SDfat/SdFile.o
 *fill*         0x0800f91c        0x4 00
 .rodata._ZTV6SdFile
                0x0800f920       0x18 build/../../libmaple/libraries/SDfat/SdFile.o
                0x0800f920                _ZTV6SdFile
 .rodata.str1.1
                0x0800f938       0xc0 build/../../libmaple/libraries/SDfat/SdVolume.o
 .rodata.str1.1
                0x0800f9f8      0x5d9 build/main.o
                                0x5e9 (size before relaxing)
 *fill*         0x0800ffd1        0x3 00
 .rodata._ZL6months
                0x0800ffd4       0x30 build/main.o
 .rodata._ZL8keywords
                0x08010004       0xf4 build/main.o
 .rodata.str1.1
                0x00000000      0x5d9 /Applications/MapleIDE.app/Contents/Resources/Java/hardware/tools/arm/bin/../lib/gcc/arm-none-eabi/4.4.1/../../../../arm-none-eabi/lib/thumb2/libc.a(lib_a-impure.o)
                                  0x2 (size before relaxing)
 .rodata.zeroes.3596
                0x080100f8       0x10 /Applications/MapleIDE.app/Contents/Resources/Java/hardware/tools/arm/bin/../lib/gcc/arm-none-eabi/4.4.1/../../../../arm-none-eabi/lib/thumb2/libc.a(lib_a-svfprintf.o)
 .rodata.str1.1
                0x08010108       0x32 /Applications/MapleIDE.app/Contents/Resources/Java/hardware/tools/arm/bin/../lib/gcc/arm-none-eabi/4.4.1/../../../../arm-none-eabi/lib/thumb2/libc.a(lib_a-svfprintf.o)
                                 0x34 (size before relaxing)
 *fill*         0x0801013a        0x2 00
 .rodata.blanks.3595
                0x0801013c       0x10 /Applications/MapleIDE.app/Contents/Resources/Java/hardware/tools/arm/bin/../lib/gcc/arm-none-eabi/4.4.1/../../../../arm-none-eabi/lib/thumb2/libc.a(lib_a-svfprintf.o)
 .rodata._ctype_
                0x0801014c      0x104 /Applications/MapleIDE.app/Contents/Resources/Java/hardware/tools/arm/bin/../lib/gcc/arm-none-eabi/4.4.1/../../../../arm-none-eabi/lib/thumb2/libc.a(lib_a-ctype_.o)
                0x0801014c                _ctype_
 .rodata.str1.1
                0x08010250        0xd /Applications/MapleIDE.app/Contents/Resources/Java/hardware/tools/arm/bin/../lib/gcc/arm-none-eabi/4.4.1/../../../../arm-none-eabi/lib/thumb2/libc.a(lib_a-dtoa.o)
                                  0xf (size before relaxing)
 *fill*         0x0801025d        0x3 00
 .rodata.lconv  0x08010260       0x30 /Applications/MapleIDE.app/Contents/Resources/Java/hardware/tools/arm/bin/../lib/gcc/arm-none-eabi/4.4.1/../../../../arm-none-eabi/lib/thumb2/libc.a(lib_a-locale.o)
 .rodata.str1.1
                0x08010290        0xb /Applications/MapleIDE.app/Contents/Resources/Java/hardware/tools/arm/bin/../lib/gcc/arm-none-eabi/4.4.1/../../../../arm-none-eabi/lib/thumb2/libc.a(lib_a-locale.o)
                                 0x10 (size before relaxing)
 *fill*         0x0801029b        0x1 00
 .rodata.p05.2463
                0x0801029c        0xc /Applications/MapleIDE.app/Contents/Resources/Java/hardware/tools/arm/bin/../lib/gcc/arm-none-eabi/4.4.1/../../../../arm-none-eabi/lib/thumb2/libc.a(lib_a-mprec.o)
 .rodata.__mprec_tens
                0x080102a8       0xc8 /Applications/MapleIDE.app/Contents/Resources/Java/hardware/tools/arm/bin/../lib/gcc/arm-none-eabi/4.4.1/../../../../arm-none-eabi/lib/thumb2/libc.a(lib_a-mprec.o)
                0x080102a8                __mprec_tens
 .rodata.__mprec_bigtens
                0x08010370       0x28 /Applications/MapleIDE.app/Contents/Resources/Java/hardware/tools/arm/bin/../lib/gcc/arm-none-eabi/4.4.1/../../../../arm-none-eabi/lib/thumb2/libc.a(lib_a-mprec.o)
                0x08010370                __mprec_bigtens
                0x08010398                __exidx_start = .

.ARM.exidx      0x08010398        0x8
 *(.ARM.exidx* .gnu.linkonce.armexidx.*)
 .ARM.exidx     0x08010398        0x8 /Applications/MapleIDE.app/Contents/Resources/Java/hardware/tools/arm/bin/../lib/gcc/arm-none-eabi/4.4.1/thumb2/libgcc.a(_divdi3.o)
 .ARM.exidx     0x080103a0        0x0 /Applications/MapleIDE.app/Contents/Resources/Java/hardware/tools/arm/bin/../lib/gcc/arm-none-eabi/4.4.1/thumb2/libgcc.a(_udivdi3.o)
                                  0x8 (size before relaxing)
 .ARM.exidx     0x080103a0        0x0 ../../libmaple/support/ld/libcs3_stm32_med_density.a(start.o)
                                  0x8 (size before relaxing)
                0x080103a0                __exidx_end = .

.text.align     0x080103a0        0x0
                0x080103a0                . = ALIGN (0x8)
                0x080103a0                _etext = .

.USER_FLASH     0x080103a0       0x10
 *(.USER_FLASH)
 .USER_FLASH    0x080103a0       0x10 build/../../libmaple/wirish/comm/HardwareSPI.o

.data           0x20000c00      0xb98 load address 0x080103b0
                0x08005000                __cs3_region_start_ram = DEFINED (_FLASH_BUILD)?.:__text_start
 *(.got.plt)
 *(.got)
 *(.data .data.* .gnu.linkonce.d.*)
 .data.adc1     0x20000c00        0x8 build/../../libmaple/libmaple/adc.o
 .data.adc2     0x20000c08        0x8 build/../../libmaple/libmaple/adc.o
 .data.ADC1     0x20000c10        0x4 build/../../libmaple/libmaple/adc.o
                0x20000c10                ADC1
 .data.ADC2     0x20000c14        0x4 build/../../libmaple/libmaple/adc.o
                0x20000c14                ADC2
 .data.DMA1     0x20000c18        0x4 build/../../libmaple/libmaple/dma.o
                0x20000c18                DMA1
 .data.dma1     0x20000c1c       0x40 build/../../libmaple/libmaple/dma.o
 .data.exti_channels
                0x20000c5c       0x80 build/../../libmaple/libmaple/exti.o
 .data.gpioa    0x20000cdc        0x8 build/../../libmaple/libmaple/gpio.o
                0x20000cdc                gpioa
 .data.gpiob    0x20000ce4        0x8 build/../../libmaple/libmaple/gpio.o
                0x20000ce4                gpiob
 .data.gpioc    0x20000cec        0x8 build/../../libmaple/libmaple/gpio.o
                0x20000cec                gpioc
 .data.gpiod    0x20000cf4        0x8 build/../../libmaple/libmaple/gpio.o
                0x20000cf4                gpiod
 .data.i2c_dev1
                0x20000cfc       0x1c build/../../libmaple/libmaple/i2c.o
 .data.i2c_dev2
                0x20000d18       0x1c build/../../libmaple/libmaple/i2c.o
 .data.spi1     0x20000d34        0x8 build/../../libmaple/libmaple/spi.o
 .data.spi2     0x20000d3c        0x8 build/../../libmaple/libmaple/spi.o
 .data.SPI1     0x20000d44        0x4 build/../../libmaple/libmaple/spi.o
                0x20000d44                SPI1
 .data.SPI2     0x20000d48        0x4 build/../../libmaple/libmaple/spi.o
                0x20000d48                SPI2
 .data.timer3   0x20000d4c       0x24 build/../../libmaple/libmaple/timer.o
 .data.timer4   0x20000d70       0x24 build/../../libmaple/libmaple/timer.o
 .data.TIMER1   0x20000d94        0x4 build/../../libmaple/libmaple/timer.o
                0x20000d94                TIMER1
 .data.TIMER2   0x20000d98        0x4 build/../../libmaple/libmaple/timer.o
                0x20000d98                TIMER2
 .data.TIMER3   0x20000d9c        0x4 build/../../libmaple/libmaple/timer.o
                0x20000d9c                TIMER3
 .data.TIMER4   0x20000da0        0x4 build/../../libmaple/libmaple/timer.o
                0x20000da0                TIMER4
 .data.timer1   0x20000da4       0x28 build/../../libmaple/libmaple/timer.o
 .data.timer2   0x20000dcc       0x24 build/../../libmaple/libmaple/timer.o
 .data.USART1   0x20000df0        0x4 build/../../libmaple/libmaple/usart.o
                0x20000df0                USART1
 .data.USART2   0x20000df4        0x4 build/../../libmaple/libmaple/usart.o
                0x20000df4                USART2
 .data.USART3   0x20000df8        0x4 build/../../libmaple/libmaple/usart.o
                0x20000df8                USART3
 .data.usart1   0x20000dfc       0x50 build/../../libmaple/libmaple/usart.o
 .data.usart2   0x20000e4c       0x50 build/../../libmaple/libmaple/usart.o
 .data.usart3   0x20000e9c       0x50 build/../../libmaple/libmaple/usart.o
 .data.USBLIB   0x20000eec        0x4 build/../../libmaple/libmaple/usb/usb.o
                0x20000eec                USBLIB
 .data.usblib   0x20000ef0       0x10 build/../../libmaple/libmaple/usb/usb.o
 .data.Device_Descriptor
                0x20000f00        0x8 build/../../libmaple/libmaple/usb/usb_cdcacm.o
                0x20000f00                Device_Descriptor
 .data.Config_Descriptor
                0x20000f08        0x8 build/../../libmaple/libmaple/usb/usb_cdcacm.o
                0x20000f08                Config_Descriptor
 .data.User_Standard_Requests
                0x20000f10       0x24 build/../../libmaple/libmaple/usb/usb_cdcacm.o
                0x20000f10                User_Standard_Requests
 .data.ep_int_in
                0x20000f34       0x1c build/../../libmaple/libmaple/usb/usb_cdcacm.o
 .data.maxNewBytes
                0x20000f50        0x4 build/../../libmaple/libmaple/usb/usb_cdcacm.o
                0x20000f50                maxNewBytes
 .data.ep_int_out
                0x20000f54       0x1c build/../../libmaple/libmaple/usb/usb_cdcacm.o
 .data.line_coding
                0x20000f70        0x8 build/../../libmaple/libmaple/usb/usb_cdcacm.o
                0x20000f70                line_coding
 .data.String_Descriptor
                0x20000f78       0x18 build/../../libmaple/libmaple/usb/usb_cdcacm.o
                0x20000f78                String_Descriptor
 .data.Device_Property
                0x20000f90       0x30 build/../../libmaple/libmaple/usb/usb_cdcacm.o
                0x20000f90                Device_Property
 .data.Device_Table
                0x20000fc0        0x4 build/../../libmaple/libmaple/usb/usb_cdcacm.o
                0x20000fc0                Device_Table
 .data.PIN_MAP  0x20000fc4      0x220 build/../../libmaple/wirish/boards/maple_mini.o
                0x20000fc4                PIN_MAP
 .data.i2c_delay
                0x200011e4        0x4 build/../../libmaple/libraries/Wire/Wire.o
                0x200011e4                i2c_delay
 .data._ZN8SdVolume17cacheBlockNumber_E
                0x200011e8        0x4 build/../../libmaple/libraries/SDfat/SdVolume.o
                0x200011e8                _ZN8SdVolume17cacheBlockNumber_E
 .data.pachubeKey
                0x200011ec       0x50 build/main.o
                0x200011ec                pachubeKey
 .data.hasWifiModule
                0x2000123c        0x1 build/main.o
                0x2000123c                hasWifiModule
 *fill*         0x2000123d        0x3 00
 .data.deviceHWV
                0x20001240        0x8 build/main.o
                0x20001240                deviceHWV
 .data.deviceSSN
                0x20001248       0x10 build/main.o
                0x20001248                deviceSSN
 .data.settingsFileName
                0x20001258       0x10 build/main.o
                0x20001258                settingsFileName
 .data.deviceSWV
                0x20001268       0x18 build/main.o
                0x20001268                deviceSWV
 .data.pachubeFeed
                0x20001280        0xc build/main.o
                0x20001280                pachubeFeed
 .data.impure_data
                0x2000128c       0xf0 /Applications/MapleIDE.app/Contents/Resources/Java/hardware/tools/arm/bin/../lib/gcc/arm-none-eabi/4.4.1/../../../../arm-none-eabi/lib/thumb2/libc.a(lib_a-impure.o)
 .data._impure_ptr
                0x2000137c        0x4 /Applications/MapleIDE.app/Contents/Resources/Java/hardware/tools/arm/bin/../lib/gcc/arm-none-eabi/4.4.1/../../../../arm-none-eabi/lib/thumb2/libc.a(lib_a-impure.o)
                0x2000137c                _impure_ptr
 .data.__ctype_ptr__
                0x20001380        0x4 /Applications/MapleIDE.app/Contents/Resources/Java/hardware/tools/arm/bin/../lib/gcc/arm-none-eabi/4.4.1/../../../../arm-none-eabi/lib/thumb2/libc.a(lib_a-ctype_.o)
                0x20001380                __ctype_ptr__
 .data.__malloc_av_
                0x20001384      0x408 /Applications/MapleIDE.app/Contents/Resources/Java/hardware/tools/arm/bin/../lib/gcc/arm-none-eabi/4.4.1/../../../../arm-none-eabi/lib/thumb2/libc.a(lib_a-mallocr.o)
                0x20001384                __malloc_av_
 .data.__malloc_trim_threshold
                0x2000178c        0x4 /Applications/MapleIDE.app/Contents/Resources/Java/hardware/tools/arm/bin/../lib/gcc/arm-none-eabi/4.4.1/../../../../arm-none-eabi/lib/thumb2/libc.a(lib_a-mallocr.o)
                0x2000178c                __malloc_trim_threshold
 .data.__malloc_sbrk_base
                0x20001790        0x4 /Applications/MapleIDE.app/Contents/Resources/Java/hardware/tools/arm/bin/../lib/gcc/arm-none-eabi/4.4.1/../../../../arm-none-eabi/lib/thumb2/libc.a(lib_a-mallocr.o)
                0x20001790                __malloc_sbrk_base
                [0x20001fd8]                _lm_heap_start = DEFINED (_lm_heap_start)?_lm_heap_start:_end
                [0x20005000]                _lm_heap_end = DEFINED (_lm_heap_end)?_lm_heap_end:__cs3_stack
                0x20001798                . = ALIGN (0x8)
 *fill*         0x20001794        0x4 00
                0x20001798                _edata = .

.jcr            0x20001798        0x0 load address 0x08010f48
 .jcr           0x20001798        0x0 /Applications/MapleIDE.app/Contents/Resources/Java/hardware/tools/arm/bin/../lib/gcc/arm-none-eabi/4.4.1/thumb2/crtbegin.o

.bss            0x20001798      0x840 load address 0x08010f48
 *(.bss .bss.* .gnu.linkonce.b.*)
 .bss           0x20001798        0x1 /Applications/MapleIDE.app/Contents/Resources/Java/hardware/tools/arm/bin/../lib/gcc/arm-none-eabi/4.4.1/thumb2/crtbegin.o
 *fill*         0x20001799        0x3 00
 .bss.pbreak.1614
                0x2000179c        0x4 build/../../libmaple/libmaple/syscalls.o
 .bss.systick_user_callback
                0x200017a0        0x4 build/../../libmaple/libmaple/systick.o
 .bss.usart1_rb
                0x200017a4        0xc build/../../libmaple/libmaple/usart.o
 .bss.usart2_rb
                0x200017b0        0xc build/../../libmaple/libmaple/usart.o
 .bss.usart3_rb
                0x200017bc        0xc build/../../libmaple/libmaple/usart.o
 .bss.line_dtr_rts
                0x200017c8        0x1 build/../../libmaple/libmaple/usb/usb_cdcacm.o
                0x200017c8                line_dtr_rts
 *fill*         0x200017c9        0x3 00
 .bss.recvBufOut
                0x200017cc        0x4 build/../../libmaple/libmaple/usb/usb_cdcacm.o
                0x200017cc                recvBufOut
 .bss.reset_state
                0x200017d0        0x1 build/../../libmaple/libmaple/usb/usb_cdcacm.o
                0x200017d0                reset_state
 *fill*         0x200017d1        0x3 00
 .bss.newBytes  0x200017d4        0x4 build/../../libmaple/libmaple/usb/usb_cdcacm.o
                0x200017d4                newBytes
 .bss.countTx   0x200017d8        0x4 build/../../libmaple/libmaple/usb/usb_cdcacm.o
                0x200017d8                countTx
 .bss.offset.2392
                0x200017dc        0x4 build/../../libmaple/libmaple/usb/usb_cdcacm.o
 .bss.last_request
                0x200017e0        0x1 build/../../libmaple/libmaple/usb/usb_cdcacm.o
                0x200017e0                last_request
 *fill*         0x200017e1        0x3 00
 .bss.recvBufIn
                0x200017e4        0x4 build/../../libmaple/libmaple/usb/usb_cdcacm.o
                0x200017e4                recvBufIn
 .bss.Data_Mul_MaxPacketSize
                0x200017e8        0x1 build/../../libmaple/libmaple/usb/usb_lib/usb_core.o
                0x200017e8                Data_Mul_MaxPacketSize
 *fill*         0x200017e9        0x3 00
 .bss.Serial1   0x200017ec       0x10 build/../../libmaple/wirish/comm/HardwareSerial.o
                0x200017ec                Serial1
 .bss.Serial2   0x200017fc       0x10 build/../../libmaple/wirish/comm/HardwareSerial.o
                0x200017fc                Serial2
 .bss.Serial3   0x2000180c       0x10 build/../../libmaple/wirish/comm/HardwareSerial.o
                0x2000180c                Serial3
 .bss.Timer1    0x2000181c        0x4 build/../../libmaple/wirish/HardwareTimer.o
                0x2000181c                Timer1
 .bss.Timer2    0x20001820        0x4 build/../../libmaple/wirish/HardwareTimer.o
                0x20001820                Timer2
 .bss.Timer3    0x20001824        0x4 build/../../libmaple/wirish/HardwareTimer.o
                0x20001824                Timer3
 .bss.Timer4    0x20001828        0x4 build/../../libmaple/wirish/HardwareTimer.o
                0x20001828                Timer4
 .bss.SerialUSB
                0x2000182c        0x4 build/../../libmaple/wirish/usb_serial.o
                0x2000182c                SerialUSB
 .bss.Wire      0x20001830       0x48 build/../../libmaple/libraries/Wire/Wire.o
                0x20001830                Wire
 .bss.SPIn      0x20001878        0x4 build/../../libmaple/libraries/SDfat/Sd2Card.o
                0x20001878                SPIn
 .bss._ZN6SdFile9dateTime_E
                0x2000187c        0x4 build/../../libmaple/libraries/SDfat/SdFile.o
                0x2000187c                _ZN6SdFile9dateTime_E
 .bss._ZN8SdVolume17cacheMirrorBlock_E
                0x20001880        0x4 build/../../libmaple/libraries/SDfat/SdVolume.o
                0x20001880                _ZN8SdVolume17cacheMirrorBlock_E
 .bss._ZN8SdVolume7sdCard_E
                0x20001884        0x4 build/../../libmaple/libraries/SDfat/SdVolume.o
                0x20001884                _ZN8SdVolume7sdCard_E
 .bss._ZN8SdVolume12cacheBuffer_E
                0x20001888      0x200 build/../../libmaple/libraries/SDfat/SdVolume.o
                0x20001888                _ZN8SdVolume12cacheBuffer_E
 .bss._ZN8SdVolume11cacheDirty_E
                0x20001a88        0x1 build/../../libmaple/libraries/SDfat/SdVolume.o
                0x20001a88                _ZN8SdVolume11cacheDirty_E
 *fill*         0x20001a89        0x3 00
 .bss.device    0x20001a8c       0x74 build/main.o
                0x20001a8c                device
 .bss.stowTimes
                0x20001b00       0x1c build/main.o
                0x20001b00                stowTimes
 .bss.volume    0x20001b1c       0x28 build/main.o
                0x20001b1c                volume
 .bss.sysinfoFile
                0x20001b44       0x24 build/main.o
                0x20001b44                sysinfoFile
 .bss.console   0x20001b68       0x74 build/main.o
                0x20001b68                console
 .bss.radio     0x20001bdc       0x74 build/main.o
                0x20001bdc                radio
 .bss.root      0x20001c50       0x24 build/main.o
                0x20001c50                root
 .bss.logOpened
                0x20001c74        0x1 build/main.o
                0x20001c74                logOpened
 *fill*         0x20001c75        0x3 00
 .bss.inBuffer  0x20001c78       0x64 build/main.o
                0x20001c78                inBuffer
 .bss.logFileName
                0x20001cdc       0x10 build/main.o
                0x20001cdc                logFileName
 .bss._ZZ4loopvE12disconnected
                0x20001cec        0x4 build/main.o
 .bss.spi       0x20001cf0        0x4 build/main.o
                0x20001cf0                spi
 .bss.file      0x20001cf4       0x24 build/main.o
                0x20001cf4                file
 .bss.throttleMark
                0x20001d18        0x4 build/main.o
                0x20001d18                throttleMark
 .bss.networkPassword
                0x20001d1c       0x28 build/main.o
                0x20001d1c                networkPassword
 .bss.settingsFile
                0x20001d44       0x24 build/main.o
                0x20001d44                settingsFile
 .bss.networkSSID
                0x20001d68       0x40 build/main.o
                0x20001d68                networkSSID
 .bss.outputBuffer
                0x20001da8       0x68 build/main.o
                0x20001da8                outputBuffer
 .bss.stowValues
                0x20001e10       0x70 build/main.o
                0x20001e10                stowValues
 .bss.card      0x20001e80       0x10 build/main.o
                0x20001e80                card
 .bss.lastCheck
                0x20001e90        0x4 build/main.o
                0x20001e90                lastCheck
 .bss.deviceIsConnected
                0x20001e94        0x1 build/main.o
                0x20001e94                deviceIsConnected
 *fill*         0x20001e95        0x3 00
 .bss.__malloc_max_total_mem
                0x20001e98        0x4 /Applications/MapleIDE.app/Contents/Resources/Java/hardware/tools/arm/bin/../lib/gcc/arm-none-eabi/4.4.1/../../../../arm-none-eabi/lib/thumb2/libc.a(lib_a-mallocr.o)
                0x20001e98                __malloc_max_total_mem
 .bss.__malloc_max_sbrked_mem
                0x20001e9c        0x4 /Applications/MapleIDE.app/Contents/Resources/Java/hardware/tools/arm/bin/../lib/gcc/arm-none-eabi/4.4.1/../../../../arm-none-eabi/lib/thumb2/libc.a(lib_a-mallocr.o)
                0x20001e9c                __malloc_max_sbrked_mem
 .bss.__malloc_top_pad
                0x20001ea0        0x4 /Applications/MapleIDE.app/Contents/Resources/Java/hardware/tools/arm/bin/../lib/gcc/arm-none-eabi/4.4.1/../../../../arm-none-eabi/lib/thumb2/libc.a(lib_a-mallocr.o)
                0x20001ea0                __malloc_top_pad
 .bss.__malloc_current_mallinfo
                0x20001ea4       0x28 /Applications/MapleIDE.app/Contents/Resources/Java/hardware/tools/arm/bin/../lib/gcc/arm-none-eabi/4.4.1/../../../../arm-none-eabi/lib/thumb2/libc.a(lib_a-mallocr.o)
                0x20001ea4                __malloc_current_mallinfo
 *(COMMON)
 COMMON         0x20001ecc        0x4 build/../../libmaple/libmaple/systick.o
                0x20001ecc                systick_uptime_millis
 COMMON         0x20001ed0        0x6 build/../../libmaple/libmaple/usb/usb.o
                0x20001ed0                SaveRState
                0x20001ed2                SaveTState
                0x20001ed4                ResumeS
 *fill*         0x20001ed6        0x2 00
 COMMON         0x20001ed8       0xc0 build/../../libmaple/libmaple/usb/usb_cdcacm.o
                0x20001ed8                vcomBufferRx
 COMMON         0x20001f98        0x2 build/../../libmaple/libmaple/usb/usb_lib/usb_core.o
                0x20001f98                StatusInfo
 *fill*         0x20001f9a        0x2 00
 COMMON         0x20001f9c       0x32 build/../../libmaple/libmaple/usb/usb_lib/usb_init.o
                0x20001f9c                SaveState
                0x20001fa0                pProperty
                0x20001fa4                EPindex
                0x20001fa8                Device_Info
                0x20001fc4                pUser_Standard_Requests
                0x20001fc8                pInformation
                0x20001fcc                wInterrupt_Mask
 *fill*         0x20001fce        0x2 00
 COMMON         0x20001fd0        0x4 /Applications/MapleIDE.app/Contents/Resources/Java/hardware/tools/arm/bin/../lib/gcc/arm-none-eabi/4.4.1/../../../../arm-none-eabi/lib/thumb2/libc.a(lib_a-reent.o)
                0x20001fd0                errno
                0x20001fd8                . = ALIGN (0x8)
 *fill*         0x20001fd4        0x4 00
                0x20001fd8                _end = .
                0x08005000                __cs3_region_init_ram = DEFINED (_FLASH_BUILD)?LOADADDR (.data):LOADADDR (.text)
                0x17ffc798                __cs3_region_init_size_ram = DEFINED (_FLASH_BUILD)?(_edata - ADDR (.data)):(_edata - ADDR (.text))
                0x00000840                __cs3_region_zero_size_ram = (_end - _edata)
                0x00000001                __cs3_region_num = 0x1

.stab
 *(.stab)

.stabstr
 *(.stabstr)

.debug
 *(.debug)

.line
 *(.line)

.debug_srcinfo
 *(.debug_srcinfo)

.debug_sfnames
 *(.debug_sfnames)

.comment        0x00000000      0x70e
 .comment       0x00000000       0x12 /Applications/MapleIDE.app/Contents/Resources/Java/hardware/tools/arm/bin/../lib/gcc/arm-none-eabi/4.4.1/thumb2/crtbegin.o
 .comment       0x00000012       0x12 build/../../libmaple/libmaple/adc.o
 .comment       0x00000024       0x12 build/../../libmaple/libmaple/bkp.o
 .comment       0x00000036       0x12 build/../../libmaple/libmaple/dac.o
 .comment       0x00000048       0x12 build/../../libmaple/libmaple/dma.o
 .comment       0x0000005a       0x12 build/../../libmaple/libmaple/exti.o
 .comment       0x0000006c       0x12 build/../../libmaple/libmaple/flash.o
 .comment       0x0000007e       0x12 build/../../libmaple/libmaple/fsmc.o
 .comment       0x00000090       0x12 build/../../libmaple/libmaple/gpio.o
 .comment       0x000000a2       0x12 build/../../libmaple/libmaple/iwdg.o
 .comment       0x000000b4       0x12 build/../../libmaple/libmaple/nvic.o
 .comment       0x000000c6       0x12 build/../../libmaple/libmaple/pwr.o
 .comment       0x000000d8       0x12 build/../../libmaple/libmaple/i2c.o
 .comment       0x000000ea       0x12 build/../../libmaple/libmaple/rcc.o
 .comment       0x000000fc       0x12 build/../../libmaple/libmaple/spi.o
 .comment       0x0000010e       0x12 build/../../libmaple/libmaple/syscalls.o
 .comment       0x00000120       0x12 build/../../libmaple/libmaple/systick.o
 .comment       0x00000132       0x12 build/../../libmaple/libmaple/timer.o
 .comment       0x00000144       0x12 build/../../libmaple/libmaple/usart.o
 .comment       0x00000156       0x12 build/../../libmaple/libmaple/util.o
 .comment       0x00000168       0x12 build/../../libmaple/libmaple/usb/usb.o
 .comment       0x0000017a       0x12 build/../../libmaple/libmaple/usb/usb_reg_map.o
 .comment       0x0000018c       0x12 build/../../libmaple/libmaple/usb/usb_cdcacm.o
 .comment       0x0000019e       0x12 build/../../libmaple/libmaple/usb/usb_lib/usb_core.o
 .comment       0x000001b0       0x12 build/../../libmaple/libmaple/usb/usb_lib/usb_init.o
 .comment       0x000001c2       0x12 build/../../libmaple/libmaple/usb/usb_lib/usb_mem.o
 .comment       0x000001d4       0x12 build/../../libmaple/libmaple/usb/usb_lib/usb_regs.o
 .comment       0x000001e6       0x12 build/../../libmaple/wirish/wirish_math.o
 .comment       0x000001f8       0x12 build/../../libmaple/wirish/Print.o
 .comment       0x0000020a       0x12 build/../../libmaple/wirish/boards.o
 .comment       0x0000021c       0x12 build/../../libmaple/wirish/boards/maple.o
 .comment       0x0000022e       0x12 build/../../libmaple/wirish/boards/maple_mini.o
 .comment       0x00000240       0x12 build/../../libmaple/wirish/boards/maple_native.o
 .comment       0x00000252       0x12 build/../../libmaple/wirish/boards/maple_RET6.o
 .comment       0x00000264       0x12 build/../../libmaple/wirish/boards/olimex_stm32_h103.o
 .comment       0x00000276       0x12 build/../../libmaple/wirish/comm/HardwareSerial.o
 .comment       0x00000288       0x12 build/../../libmaple/wirish/comm/HardwareSPI.o
 .comment       0x0000029a       0x12 build/../../libmaple/wirish/HardwareTimer.o
 .comment       0x000002ac       0x12 build/../../libmaple/wirish/usb_serial.o
 .comment       0x000002be       0x12 build/../../libmaple/wirish/cxxabi-compat.o
 .comment       0x000002d0       0x12 build/../../libmaple/wirish/wirish_shift.o
 .comment       0x000002e2       0x12 build/../../libmaple/wirish/wirish_analog.o
 .comment       0x000002f4       0x12 build/../../libmaple/wirish/wirish_time.o
 .comment       0x00000306       0x12 build/../../libmaple/wirish/pwm.o
 .comment       0x00000318       0x12 build/../../libmaple/wirish/ext_interrupts.o
 .comment       0x0000032a       0x12 build/../../libmaple/wirish/wirish_digital.o
 .comment       0x0000033c       0x12 build/../../libmaple/libraries/Servo/Servo.o
 .comment       0x0000034e       0x12 build/../../libmaple/libraries/LiquidCrystal/LiquidCrystal.o
 .comment       0x00000360       0x12 build/../../libmaple/libraries/Wire/Wire.o
 .comment       0x00000372       0x12 build/../../libmaple/libraries/SDfat/Sd2Card.o
 .comment       0x00000384       0x12 build/../../libmaple/libraries/SDfat/SdFile.o
 .comment       0x00000396       0x12 build/../../libmaple/libraries/SDfat/SdVolume.o
 .comment       0x000003a8       0x12 build/main.o
 .comment       0x000003ba       0x12 /Applications/MapleIDE.app/Contents/Resources/Java/hardware/tools/arm/bin/../lib/gcc/arm-none-eabi/4.4.1/thumb2/libgcc.a(_fixdfdi.o)
 .comment       0x000003cc       0x12 /Applications/MapleIDE.app/Contents/Resources/Java/hardware/tools/arm/bin/../lib/gcc/arm-none-eabi/4.4.1/thumb2/libgcc.a(_fixunsdfdi.o)
 .comment       0x000003de       0x12 /Applications/MapleIDE.app/Contents/Resources/Java/hardware/tools/arm/bin/../lib/gcc/arm-none-eabi/4.4.1/thumb2/libgcc.a(bpabi.o)
 .comment       0x000003f0       0x12 /Applications/MapleIDE.app/Contents/Resources/Java/hardware/tools/arm/bin/../lib/gcc/arm-none-eabi/4.4.1/thumb2/libgcc.a(_divdi3.o)
 .comment       0x00000402       0x12 /Applications/MapleIDE.app/Contents/Resources/Java/hardware/tools/arm/bin/../lib/gcc/arm-none-eabi/4.4.1/thumb2/libgcc.a(_udivdi3.o)
 .comment       0x00000414       0x12 /Applications/MapleIDE.app/Contents/Resources/Java/hardware/tools/arm/bin/../lib/gcc/arm-none-eabi/4.4.1/../../../../arm-none-eabi/lib/thumb2/libc.a(lib_a-atoi.o)
 .comment       0x00000426       0x12 /Applications/MapleIDE.app/Contents/Resources/Java/hardware/tools/arm/bin/../lib/gcc/arm-none-eabi/4.4.1/../../../../arm-none-eabi/lib/thumb2/libc.a(lib_a-atoll.o)
 .comment       0x00000438       0x12 /Applications/MapleIDE.app/Contents/Resources/Java/hardware/tools/arm/bin/../lib/gcc/arm-none-eabi/4.4.1/../../../../arm-none-eabi/lib/thumb2/libc.a(lib_a-errno.o)
 .comment       0x0000044a       0x12 /Applications/MapleIDE.app/Contents/Resources/Java/hardware/tools/arm/bin/../lib/gcc/arm-none-eabi/4.4.1/../../../../arm-none-eabi/lib/thumb2/libc.a(lib_a-impure.o)
 .comment       0x0000045c       0x12 /Applications/MapleIDE.app/Contents/Resources/Java/hardware/tools/arm/bin/../lib/gcc/arm-none-eabi/4.4.1/../../../../arm-none-eabi/lib/thumb2/libc.a(lib_a-memcmp.o)
 .comment       0x0000046e       0x12 /Applications/MapleIDE.app/Contents/Resources/Java/hardware/tools/arm/bin/../lib/gcc/arm-none-eabi/4.4.1/../../../../arm-none-eabi/lib/thumb2/libc.a(lib_a-memcpy.o)
 .comment       0x00000480       0x12 /Applications/MapleIDE.app/Contents/Resources/Java/hardware/tools/arm/bin/../lib/gcc/arm-none-eabi/4.4.1/../../../../arm-none-eabi/lib/thumb2/libc.a(lib_a-memset.o)
 .comment       0x00000492       0x12 /Applications/MapleIDE.app/Contents/Resources/Java/hardware/tools/arm/bin/../lib/gcc/arm-none-eabi/4.4.1/../../../../arm-none-eabi/lib/thumb2/libc.a(lib_a-rand.o)
 .comment       0x000004a4       0x12 /Applications/MapleIDE.app/Contents/Resources/Java/hardware/tools/arm/bin/../lib/gcc/arm-none-eabi/4.4.1/../../../../arm-none-eabi/lib/thumb2/libc.a(lib_a-snprintf.o)
 .comment       0x000004b6       0x12 /Applications/MapleIDE.app/Contents/Resources/Java/hardware/tools/arm/bin/../lib/gcc/arm-none-eabi/4.4.1/../../../../arm-none-eabi/lib/thumb2/libc.a(lib_a-sprintf.o)
 .comment       0x000004c8       0x12 /Applications/MapleIDE.app/Contents/Resources/Java/hardware/tools/arm/bin/../lib/gcc/arm-none-eabi/4.4.1/../../../../arm-none-eabi/lib/thumb2/libc.a(lib_a-strchr.o)
 .comment       0x000004da       0x12 /Applications/MapleIDE.app/Contents/Resources/Java/hardware/tools/arm/bin/../lib/gcc/arm-none-eabi/4.4.1/../../../../arm-none-eabi/lib/thumb2/libc.a(lib_a-strcpy.o)
 .comment       0x000004ec       0x12 /Applications/MapleIDE.app/Contents/Resources/Java/hardware/tools/arm/bin/../lib/gcc/arm-none-eabi/4.4.1/../../../../arm-none-eabi/lib/thumb2/libc.a(lib_a-strlen.o)
 .comment       0x000004fe       0x12 /Applications/MapleIDE.app/Contents/Resources/Java/hardware/tools/arm/bin/../lib/gcc/arm-none-eabi/4.4.1/../../../../arm-none-eabi/lib/thumb2/libc.a(lib_a-strncmp.o)
 .comment       0x00000510       0x12 /Applications/MapleIDE.app/Contents/Resources/Java/hardware/tools/arm/bin/../lib/gcc/arm-none-eabi/4.4.1/../../../../arm-none-eabi/lib/thumb2/libc.a(lib_a-strncpy.o)
 .comment       0x00000522       0x12 /Applications/MapleIDE.app/Contents/Resources/Java/hardware/tools/arm/bin/../lib/gcc/arm-none-eabi/4.4.1/../../../../arm-none-eabi/lib/thumb2/libc.a(lib_a-strtol.o)
 .comment       0x00000534       0x12 /Applications/MapleIDE.app/Contents/Resources/Java/hardware/tools/arm/bin/../lib/gcc/arm-none-eabi/4.4.1/../../../../arm-none-eabi/lib/thumb2/libc.a(lib_a-strtoll.o)
 .comment       0x00000546       0x12 /Applications/MapleIDE.app/Contents/Resources/Java/hardware/tools/arm/bin/../lib/gcc/arm-none-eabi/4.4.1/../../../../arm-none-eabi/lib/thumb2/libc.a(lib_a-strtoll_r.o)
 .comment       0x00000558       0x12 /Applications/MapleIDE.app/Contents/Resources/Java/hardware/tools/arm/bin/../lib/gcc/arm-none-eabi/4.4.1/../../../../arm-none-eabi/lib/thumb2/libc.a(lib_a-svfprintf.o)
 .comment       0x0000056a       0x12 /Applications/MapleIDE.app/Contents/Resources/Java/hardware/tools/arm/bin/../lib/gcc/arm-none-eabi/4.4.1/../../../../arm-none-eabi/lib/thumb2/libc.a(lib_a-toupper.o)
 .comment       0x0000057c       0x12 /Applications/MapleIDE.app/Contents/Resources/Java/hardware/tools/arm/bin/../lib/gcc/arm-none-eabi/4.4.1/../../../../arm-none-eabi/lib/thumb2/libc.a(lib_a-vsnprintf.o)
 .comment       0x0000058e       0x12 /Applications/MapleIDE.app/Contents/Resources/Java/hardware/tools/arm/bin/../lib/gcc/arm-none-eabi/4.4.1/../../../../arm-none-eabi/lib/thumb2/libc.a(lib_a-ctype_.o)
 .comment       0x000005a0       0x12 /Applications/MapleIDE.app/Contents/Resources/Java/hardware/tools/arm/bin/../lib/gcc/arm-none-eabi/4.4.1/../../../../arm-none-eabi/lib/thumb2/libc.a(lib_a-dtoa.o)
 .comment       0x000005b2       0x12 /Applications/MapleIDE.app/Contents/Resources/Java/hardware/tools/arm/bin/../lib/gcc/arm-none-eabi/4.4.1/../../../../arm-none-eabi/lib/thumb2/libc.a(lib_a-freer.o)
 .comment       0x000005c4       0x12 /Applications/MapleIDE.app/Contents/Resources/Java/hardware/tools/arm/bin/../lib/gcc/arm-none-eabi/4.4.1/../../../../arm-none-eabi/lib/thumb2/libc.a(lib_a-locale.o)
 .comment       0x000005d6       0x12 /Applications/MapleIDE.app/Contents/Resources/Java/hardware/tools/arm/bin/../lib/gcc/arm-none-eabi/4.4.1/../../../../arm-none-eabi/lib/thumb2/libc.a(lib_a-malloc.o)
 .comment       0x000005e8       0x12 /Applications/MapleIDE.app/Contents/Resources/Java/hardware/tools/arm/bin/../lib/gcc/arm-none-eabi/4.4.1/../../../../arm-none-eabi/lib/thumb2/libc.a(lib_a-mallocr.o)
 .comment       0x000005fa       0x12 /Applications/MapleIDE.app/Contents/Resources/Java/hardware/tools/arm/bin/../lib/gcc/arm-none-eabi/4.4.1/../../../../arm-none-eabi/lib/thumb2/libc.a(lib_a-memchr.o)
 .comment       0x0000060c       0x12 /Applications/MapleIDE.app/Contents/Resources/Java/hardware/tools/arm/bin/../lib/gcc/arm-none-eabi/4.4.1/../../../../arm-none-eabi/lib/thumb2/libc.a(lib_a-memmove.o)
 .comment       0x0000061e       0x12 /Applications/MapleIDE.app/Contents/Resources/Java/hardware/tools/arm/bin/../lib/gcc/arm-none-eabi/4.4.1/../../../../arm-none-eabi/lib/thumb2/libc.a(lib_a-mlock.o)
 .comment       0x00000630       0x12 /Applications/MapleIDE.app/Contents/Resources/Java/hardware/tools/arm/bin/../lib/gcc/arm-none-eabi/4.4.1/../../../../arm-none-eabi/lib/thumb2/libc.a(lib_a-mprec.o)
 .comment       0x00000642       0x12 /Applications/MapleIDE.app/Contents/Resources/Java/hardware/tools/arm/bin/../lib/gcc/arm-none-eabi/4.4.1/../../../../arm-none-eabi/lib/thumb2/libc.a(lib_a-reallocr.o)
 .comment       0x00000654       0x12 /Applications/MapleIDE.app/Contents/Resources/Java/hardware/tools/arm/bin/../lib/gcc/arm-none-eabi/4.4.1/../../../../arm-none-eabi/lib/thumb2/libc.a(lib_a-s_isinfd.o)
 .comment       0x00000666       0x12 /Applications/MapleIDE.app/Contents/Resources/Java/hardware/tools/arm/bin/../lib/gcc/arm-none-eabi/4.4.1/../../../../arm-none-eabi/lib/thumb2/libc.a(lib_a-s_isnand.o)
 .comment       0x00000678       0x12 /Applications/MapleIDE.app/Contents/Resources/Java/hardware/tools/arm/bin/../lib/gcc/arm-none-eabi/4.4.1/../../../../arm-none-eabi/lib/thumb2/libc.a(lib_a-sbrkr.o)
 .comment       0x0000068a       0x12 /Applications/MapleIDE.app/Contents/Resources/Java/hardware/tools/arm/bin/../lib/gcc/arm-none-eabi/4.4.1/../../../../arm-none-eabi/lib/thumb2/libc.a(lib_a-strcmp.o)
 .comment       0x0000069c       0x12 /Applications/MapleIDE.app/Contents/Resources/Java/hardware/tools/arm/bin/../lib/gcc/arm-none-eabi/4.4.1/../../../../arm-none-eabi/lib/thumb2/libc.a(lib_a-callocr.o)
 .comment       0x000006ae       0x12 /Applications/MapleIDE.app/Contents/Resources/Java/hardware/tools/arm/bin/../lib/gcc/arm-none-eabi/4.4.1/../../../../arm-none-eabi/lib/thumb2/libc.a(lib_a-reent.o)
 .comment       0x000006c0       0x12 /Applications/MapleIDE.app/Contents/Resources/Java/hardware/tools/arm/bin/../lib/gcc/arm-none-eabi/4.4.1/thumb2/crtend.o
 .comment       0x000006d2       0x2a ../../libmaple/support/ld/libcs3_stm32_med_density.a(start_c.o)
                                 0x2b (size before relaxing)
 .comment       0x000006fc       0x12 /Applications/MapleIDE.app/Contents/Resources/Java/hardware/tools/arm/bin/../lib/gcc/arm-none-eabi/4.4.1/../../../../arm-none-eabi/lib/thumb2/libc.a(lib_a-init.o)

.debug_aranges  0x00000000     0x1988
 *(.debug_aranges)
 .debug_aranges
                0x00000000       0x28 /Applications/MapleIDE.app/Contents/Resources/Java/hardware/tools/arm/bin/../lib/gcc/arm-none-eabi/4.4.1/thumb2/crti.o
 .debug_aranges
                0x00000028       0x50 build/../../libmaple/libmaple/adc.o
 .debug_aranges
                0x00000078       0x50 build/../../libmaple/libmaple/bkp.o
 .debug_aranges
                0x000000c8       0xd0 build/../../libmaple/libmaple/dma.o
 .debug_aranges
                0x00000198       0x80 build/../../libmaple/libmaple/exti.o
 .debug_aranges
                0x00000218       0x28 build/../../libmaple/libmaple/flash.o
 .debug_aranges
                0x00000240       0x48 build/../../libmaple/libmaple/gpio.o
 .debug_aranges
                0x00000288       0x28 build/../../libmaple/libmaple/iwdg.o
 .debug_aranges
                0x000002b0       0x38 build/../../libmaple/libmaple/nvic.o
 .debug_aranges
                0x000002e8       0x20 build/../../libmaple/libmaple/pwr.o
 .debug_aranges
                0x00000308       0xb8 build/../../libmaple/libmaple/i2c.o
 .debug_aranges
                0x000003c0       0x48 build/../../libmaple/libmaple/rcc.o
 .debug_aranges
                0x00000408       0x88 build/../../libmaple/libmaple/spi.o
 .debug_aranges
                0x00000490       0x80 build/../../libmaple/libmaple/syscalls.o
 .debug_aranges
                0x00000510       0x40 build/../../libmaple/libmaple/systick.o
 .debug_aranges
                0x00000550       0xb8 build/../../libmaple/libmaple/timer.o
 .debug_aranges
                0x00000608       0x80 build/../../libmaple/libmaple/usart.o
 .debug_aranges
                0x00000688       0x70 build/../../libmaple/libmaple/util.o
 .debug_aranges
                0x000006f8       0x78 build/../../libmaple/libmaple/usb/usb.o
 .debug_aranges
                0x00000770       0x38 build/../../libmaple/libmaple/usb/usb_reg_map.o
 .debug_aranges
                0x000007a8      0x100 build/../../libmaple/libmaple/usb/usb_cdcacm.o
 .debug_aranges
                0x000008a8       0x98 build/../../libmaple/libmaple/usb/usb_lib/usb_core.o
 .debug_aranges
                0x00000940       0x20 build/../../libmaple/libmaple/usb/usb_lib/usb_init.o
 .debug_aranges
                0x00000960       0x28 build/../../libmaple/libmaple/usb/usb_lib/usb_mem.o
 .debug_aranges
                0x00000988      0x1f0 build/../../libmaple/libmaple/usb/usb_lib/usb_regs.o
 .debug_aranges
                0x00000b78       0x30 build/../../libmaple/wirish/wirish_math.o
 .debug_aranges
                0x00000ba8       0xe0 build/../../libmaple/wirish/Print.o
 .debug_aranges
                0x00000c88       0x40 build/../../libmaple/wirish/boards.o
 .debug_aranges
                0x00000cc8       0x28 build/../../libmaple/wirish/boards/maple_mini.o
 .debug_aranges
                0x00000cf0       0x68 build/../../libmaple/wirish/comm/HardwareSerial.o
 .debug_aranges
                0x00000d58       0xd0 build/../../libmaple/wirish/comm/HardwareSPI.o
 .debug_aranges
                0x00000e28       0xb0 build/../../libmaple/wirish/HardwareTimer.o
 .debug_aranges
                0x00000ed8       0x98 build/../../libmaple/wirish/usb_serial.o
 .debug_aranges
                0x00000f70       0x20 build/../../libmaple/wirish/cxxabi-compat.o
 .debug_aranges
                0x00000f90       0x20 build/../../libmaple/wirish/wirish_shift.o
 .debug_aranges
                0x00000fb0       0x20 build/../../libmaple/wirish/wirish_analog.o
 .debug_aranges
                0x00000fd0       0x28 build/../../libmaple/wirish/wirish_time.o
 .debug_aranges
                0x00000ff8       0x20 build/../../libmaple/wirish/pwm.o
 .debug_aranges
                0x00001018       0x28 build/../../libmaple/wirish/ext_interrupts.o
 .debug_aranges
                0x00001040       0x48 build/../../libmaple/wirish/wirish_digital.o
 .debug_aranges
                0x00001088       0x78 build/../../libmaple/libraries/Servo/Servo.o
 .debug_aranges
                0x00001100      0x120 build/../../libmaple/libraries/LiquidCrystal/LiquidCrystal.o
 .debug_aranges
                0x00001220       0xe8 build/../../libmaple/libraries/Wire/Wire.o
 .debug_aranges
                0x00001308       0xe8 build/../../libmaple/libraries/SDfat/Sd2Card.o
 .debug_aranges
                0x000013f0      0x1c0 build/../../libmaple/libraries/SDfat/SdFile.o
 .debug_aranges
                0x000015b0       0x78 build/../../libmaple/libraries/SDfat/SdVolume.o
 .debug_aranges
                0x00001628      0x158 build/main.o
 .debug_aranges
                0x00001780       0x20 /Applications/MapleIDE.app/Contents/Resources/Java/hardware/tools/arm/bin/../lib/gcc/arm-none-eabi/4.4.1/thumb2/libgcc.a(_arm_addsubdf3.o)
 .debug_aranges
                0x000017a0       0x20 /Applications/MapleIDE.app/Contents/Resources/Java/hardware/tools/arm/bin/../lib/gcc/arm-none-eabi/4.4.1/thumb2/libgcc.a(_arm_muldivdf3.o)
 .debug_aranges
                0x000017c0       0x20 /Applications/MapleIDE.app/Contents/Resources/Java/hardware/tools/arm/bin/../lib/gcc/arm-none-eabi/4.4.1/thumb2/libgcc.a(_arm_cmpdf2.o)
 .debug_aranges
                0x000017e0       0x20 /Applications/MapleIDE.app/Contents/Resources/Java/hardware/tools/arm/bin/../lib/gcc/arm-none-eabi/4.4.1/thumb2/libgcc.a(_arm_fixdfsi.o)
 .debug_aranges
                0x00001800       0x20 /Applications/MapleIDE.app/Contents/Resources/Java/hardware/tools/arm/bin/../lib/gcc/arm-none-eabi/4.4.1/thumb2/libgcc.a(_aeabi_ldivmod.o)
 .debug_aranges
                0x00001820       0x20 /Applications/MapleIDE.app/Contents/Resources/Java/hardware/tools/arm/bin/../lib/gcc/arm-none-eabi/4.4.1/thumb2/libgcc.a(_aeabi_uldivmod.o)
 .debug_aranges
                0x00001840       0x20 /Applications/MapleIDE.app/Contents/Resources/Java/hardware/tools/arm/bin/../lib/gcc/arm-none-eabi/4.4.1/thumb2/libgcc.a(_fixdfdi.o)
 .debug_aranges
                0x00001860       0x20 /Applications/MapleIDE.app/Contents/Resources/Java/hardware/tools/arm/bin/../lib/gcc/arm-none-eabi/4.4.1/thumb2/libgcc.a(_fixunsdfdi.o)
 .debug_aranges
                0x00001880       0x20 /Applications/MapleIDE.app/Contents/Resources/Java/hardware/tools/arm/bin/../lib/gcc/arm-none-eabi/4.4.1/thumb2/libgcc.a(bpabi.o)
 .debug_aranges
                0x000018a0       0x20 /Applications/MapleIDE.app/Contents/Resources/Java/hardware/tools/arm/bin/../lib/gcc/arm-none-eabi/4.4.1/thumb2/libgcc.a(_dvmd_tls.o)
 .debug_aranges
                0x000018c0       0x20 /Applications/MapleIDE.app/Contents/Resources/Java/hardware/tools/arm/bin/../lib/gcc/arm-none-eabi/4.4.1/thumb2/libgcc.a(_arm_fixunsdfsi.o)
 .debug_aranges
                0x000018e0       0x20 /Applications/MapleIDE.app/Contents/Resources/Java/hardware/tools/arm/bin/../lib/gcc/arm-none-eabi/4.4.1/thumb2/libgcc.a(_divdi3.o)
 .debug_aranges
                0x00001900       0x20 /Applications/MapleIDE.app/Contents/Resources/Java/hardware/tools/arm/bin/../lib/gcc/arm-none-eabi/4.4.1/thumb2/libgcc.a(_udivdi3.o)
 .debug_aranges
                0x00001920       0x20 /Applications/MapleIDE.app/Contents/Resources/Java/hardware/tools/arm/bin/../lib/gcc/arm-none-eabi/4.4.1/thumb2/libgcc.a(_udivsi3.o)
 .debug_aranges
                0x00001940       0x20 /Applications/MapleIDE.app/Contents/Resources/Java/hardware/tools/arm/bin/../lib/gcc/arm-none-eabi/4.4.1/thumb2/libgcc.a(_divsi3.o)
 .debug_aranges
                0x00001960       0x28 /Applications/MapleIDE.app/Contents/Resources/Java/hardware/tools/arm/bin/../lib/gcc/arm-none-eabi/4.4.1/thumb2/crtn.o

.debug_pubnames
                0x00000000     0x351f
 *(.debug_pubnames)
 .debug_pubnames
                0x00000000       0x8b build/../../libmaple/libmaple/adc.o
 .debug_pubnames
                0x0000008b       0x77 build/../../libmaple/libmaple/bkp.o
 .debug_pubnames
                0x00000102      0x1a7 build/../../libmaple/libmaple/dma.o
 .debug_pubnames
                0x000002a9       0xbc build/../../libmaple/libmaple/exti.o
 .debug_pubnames
                0x00000365       0x42 build/../../libmaple/libmaple/flash.o
 .debug_pubnames
                0x000003a7       0xc6 build/../../libmaple/libmaple/gpio.o
 .debug_pubnames
                0x0000046d       0x2e build/../../libmaple/libmaple/iwdg.o
 .debug_pubnames
                0x0000049b       0x67 build/../../libmaple/libmaple/nvic.o
 .debug_pubnames
                0x00000502       0x1f build/../../libmaple/libmaple/pwr.o
 .debug_pubnames
                0x00000521       0xb5 build/../../libmaple/libmaple/i2c.o
 .debug_pubnames
                0x000005d6       0x6e build/../../libmaple/libmaple/rcc.o
 .debug_pubnames
                0x00000644      0x117 build/../../libmaple/libmaple/spi.o
 .debug_pubnames
                0x0000075b       0x9b build/../../libmaple/libmaple/syscalls.o
 .debug_pubnames
                0x000007f6       0x92 build/../../libmaple/libmaple/systick.o
 .debug_pubnames
                0x00000888      0x135 build/../../libmaple/libmaple/timer.o
 .debug_pubnames
                0x000009bd       0xee build/../../libmaple/libmaple/usart.o
 .debug_pubnames
                0x00000aab       0x66 build/../../libmaple/libmaple/util.o
 .debug_pubnames
                0x00000b11       0xdb build/../../libmaple/libmaple/usb/usb.o
 .debug_pubnames
                0x00000bec       0x54 build/../../libmaple/libmaple/usb/usb_reg_map.o
 .debug_pubnames
                0x00000c40      0x293 build/../../libmaple/libmaple/usb/usb_cdcacm.o
 .debug_pubnames
                0x00000ed3      0x1a5 build/../../libmaple/libmaple/usb/usb_lib/usb_core.o
 .debug_pubnames
                0x00001078       0x98 build/../../libmaple/libmaple/usb/usb_lib/usb_init.o
 .debug_pubnames
                0x00001110       0x42 build/../../libmaple/libmaple/usb/usb_lib/usb_mem.o
 .debug_pubnames
                0x00001152      0x419 build/../../libmaple/libmaple/usb/usb_lib/usb_regs.o
 .debug_pubnames
                0x0000156b       0x37 build/../../libmaple/wirish/wirish_math.o
 .debug_pubnames
                0x000015a2      0x1dc build/../../libmaple/wirish/Print.o
 .debug_pubnames
                0x0000177e       0x2c build/../../libmaple/wirish/boards.o
 .debug_pubnames
                0x000017aa       0x60 build/../../libmaple/wirish/boards/maple_mini.o
 .debug_pubnames
                0x0000180a      0x12a build/../../libmaple/wirish/comm/HardwareSerial.o
 .debug_pubnames
                0x00001934      0x1df build/../../libmaple/wirish/comm/HardwareSPI.o
 .debug_pubnames
                0x00001b13      0x248 build/../../libmaple/wirish/HardwareTimer.o
 .debug_pubnames
                0x00001d5b      0x169 build/../../libmaple/wirish/usb_serial.o
 .debug_pubnames
                0x00001ec4       0x29 build/../../libmaple/wirish/cxxabi-compat.o
 .debug_pubnames
                0x00001eed       0x1f build/../../libmaple/wirish/wirish_shift.o
 .debug_pubnames
                0x00001f0c       0x21 build/../../libmaple/wirish/wirish_analog.o
 .debug_pubnames
                0x00001f2d       0x32 build/../../libmaple/wirish/wirish_time.o
 .debug_pubnames
                0x00001f5f       0x1f build/../../libmaple/wirish/pwm.o
 .debug_pubnames
                0x00001f7e       0x3a build/../../libmaple/wirish/ext_interrupts.o
 .debug_pubnames
                0x00001fb8       0x78 build/../../libmaple/wirish/wirish_digital.o
 .debug_pubnames
                0x00002030       0xdd build/../../libmaple/libraries/Servo/Servo.o
 .debug_pubnames
                0x0000210d      0x3d8 build/../../libmaple/libraries/LiquidCrystal/LiquidCrystal.o
 .debug_pubnames
                0x000024e5      0x230 build/../../libmaple/libraries/Wire/Wire.o
 .debug_pubnames
                0x00002715      0x256 build/../../libmaple/libraries/SDfat/Sd2Card.o
 .debug_pubnames
                0x0000296b      0x490 build/../../libmaple/libraries/SDfat/SdFile.o
 .debug_pubnames
                0x00002dfb      0x1c2 build/../../libmaple/libraries/SDfat/SdVolume.o
 .debug_pubnames
                0x00002fbd      0x49b build/main.o
 .debug_pubnames
                0x00003458       0x20 /Applications/MapleIDE.app/Contents/Resources/Java/hardware/tools/arm/bin/../lib/gcc/arm-none-eabi/4.4.1/thumb2/libgcc.a(_fixdfdi.o)
 .debug_pubnames
                0x00003478       0x23 /Applications/MapleIDE.app/Contents/Resources/Java/hardware/tools/arm/bin/../lib/gcc/arm-none-eabi/4.4.1/thumb2/libgcc.a(_fixunsdfdi.o)
 .debug_pubnames
                0x0000349b       0x45 /Applications/MapleIDE.app/Contents/Resources/Java/hardware/tools/arm/bin/../lib/gcc/arm-none-eabi/4.4.1/thumb2/libgcc.a(bpabi.o)
 .debug_pubnames
                0x000034e0       0x1f /Applications/MapleIDE.app/Contents/Resources/Java/hardware/tools/arm/bin/../lib/gcc/arm-none-eabi/4.4.1/thumb2/libgcc.a(_divdi3.o)
 .debug_pubnames
                0x000034ff       0x20 /Applications/MapleIDE.app/Contents/Resources/Java/hardware/tools/arm/bin/../lib/gcc/arm-none-eabi/4.4.1/thumb2/libgcc.a(_udivdi3.o)

.debug_info     0x00000000    0x25cab
 *(.debug_info .gnu.linkonce.wi.*)
 .debug_info    0x00000000       0x8f /Applications/MapleIDE.app/Contents/Resources/Java/hardware/tools/arm/bin/../lib/gcc/arm-none-eabi/4.4.1/thumb2/crti.o
 .debug_info    0x0000008f      0x605 build/../../libmaple/libmaple/adc.o
 .debug_info    0x00000694      0x410 build/../../libmaple/libmaple/bkp.o
 .debug_info    0x00000aa4       0x62 build/../../libmaple/libmaple/dac.o
 .debug_info    0x00000b06      0xeb7 build/../../libmaple/libmaple/dma.o
 .debug_info    0x000019bd      0x7d9 build/../../libmaple/libmaple/exti.o
 .debug_info    0x00002196      0x1a8 build/../../libmaple/libmaple/flash.o
 .debug_info    0x0000233e       0x62 build/../../libmaple/libmaple/fsmc.o
 .debug_info    0x000023a0      0x620 build/../../libmaple/libmaple/gpio.o
 .debug_info    0x000029c0      0x14a build/../../libmaple/libmaple/iwdg.o
 .debug_info    0x00002b0a      0x4cc build/../../libmaple/libmaple/nvic.o
 .debug_info    0x00002fd6      0x125 build/../../libmaple/libmaple/pwr.o
 .debug_info    0x000030fb      0xee7 build/../../libmaple/libmaple/i2c.o
 .debug_info    0x00003fe2      0x663 build/../../libmaple/libmaple/rcc.o
 .debug_info    0x00004645      0xaaf build/../../libmaple/libmaple/spi.o
 .debug_info    0x000050f4      0x550 build/../../libmaple/libmaple/syscalls.o
 .debug_info    0x00005644      0x16b build/../../libmaple/libmaple/systick.o
 .debug_info    0x000057af     0x12ec build/../../libmaple/libmaple/timer.o
 .debug_info    0x00006a9b      0xbba build/../../libmaple/libmaple/usart.o
 .debug_info    0x00007655      0xbc3 build/../../libmaple/libmaple/util.o
 .debug_info    0x00008218      0xaf7 build/../../libmaple/libmaple/usb/usb.o
 .debug_info    0x00008d0f      0x2ee build/../../libmaple/libmaple/usb/usb_reg_map.o
 .debug_info    0x00008ffd     0x19bb build/../../libmaple/libmaple/usb/usb_cdcacm.o
 .debug_info    0x0000a9b8      0xc01 build/../../libmaple/libmaple/usb/usb_lib/usb_core.o
 .debug_info    0x0000b5b9      0x458 build/../../libmaple/libmaple/usb/usb_lib/usb_init.o
 .debug_info    0x0000ba11      0x171 build/../../libmaple/libmaple/usb/usb_lib/usb_mem.o
 .debug_info    0x0000bb82      0xcc7 build/../../libmaple/libmaple/usb/usb_lib/usb_regs.o
 .debug_info    0x0000c849      0x139 build/../../libmaple/wirish/wirish_math.o
 .debug_info    0x0000c982      0xb10 build/../../libmaple/wirish/Print.o
 .debug_info    0x0000d492      0xf1a build/../../libmaple/wirish/boards.o
 .debug_info    0x0000e3ac       0x29 build/../../libmaple/wirish/boards/maple.o
 .debug_info    0x0000e3d5      0xabd build/../../libmaple/wirish/boards/maple_mini.o
 .debug_info    0x0000ee92       0x29 build/../../libmaple/wirish/boards/maple_native.o
 .debug_info    0x0000eebb       0x29 build/../../libmaple/wirish/boards/maple_RET6.o
 .debug_info    0x0000eee4       0x29 build/../../libmaple/wirish/boards/olimex_stm32_h103.o
 .debug_info    0x0000ef0d     0x11f5 build/../../libmaple/wirish/comm/HardwareSerial.o
 .debug_info    0x00010102     0x16ca build/../../libmaple/wirish/comm/HardwareSPI.o
 .debug_info    0x000117cc     0x129d build/../../libmaple/wirish/HardwareTimer.o
 .debug_info    0x00012a69      0x8bb build/../../libmaple/wirish/usb_serial.o
 .debug_info    0x00013324       0x40 build/../../libmaple/wirish/cxxabi-compat.o
 .debug_info    0x00013364      0x129 build/../../libmaple/wirish/wirish_shift.o
 .debug_info    0x0001348d      0x88d build/../../libmaple/wirish/wirish_analog.o
 .debug_info    0x00013d1a      0x126 build/../../libmaple/wirish/wirish_time.o
 .debug_info    0x00013e40      0x90e build/../../libmaple/wirish/pwm.o
 .debug_info    0x0001474e      0x9d7 build/../../libmaple/wirish/ext_interrupts.o
 .debug_info    0x00015125      0xb98 build/../../libmaple/wirish/wirish_digital.o
 .debug_info    0x00015cbd      0xf60 build/../../libmaple/libraries/Servo/Servo.o
 .debug_info    0x00016c1d     0x109a build/../../libmaple/libraries/LiquidCrystal/LiquidCrystal.o
 .debug_info    0x00017cb7      0xc04 build/../../libmaple/libraries/Wire/Wire.o
 .debug_info    0x000188bb     0x1d5a build/../../libmaple/libraries/SDfat/Sd2Card.o
 .debug_info    0x0001a615     0x3e9c build/../../libmaple/libraries/SDfat/SdFile.o
 .debug_info    0x0001e4b1     0x25ac build/../../libmaple/libraries/SDfat/SdVolume.o
 .debug_info    0x00020a5d     0x3b0c build/main.o
 .debug_info    0x00024569       0xbf /Applications/MapleIDE.app/Contents/Resources/Java/hardware/tools/arm/bin/../lib/gcc/arm-none-eabi/4.4.1/thumb2/libgcc.a(_arm_addsubdf3.o)
 .debug_info    0x00024628       0xbf /Applications/MapleIDE.app/Contents/Resources/Java/hardware/tools/arm/bin/../lib/gcc/arm-none-eabi/4.4.1/thumb2/libgcc.a(_arm_muldivdf3.o)
 .debug_info    0x000246e7       0xbf /Applications/MapleIDE.app/Contents/Resources/Java/hardware/tools/arm/bin/../lib/gcc/arm-none-eabi/4.4.1/thumb2/libgcc.a(_arm_cmpdf2.o)
 .debug_info    0x000247a6       0xbf /Applications/MapleIDE.app/Contents/Resources/Java/hardware/tools/arm/bin/../lib/gcc/arm-none-eabi/4.4.1/thumb2/libgcc.a(_arm_fixdfsi.o)
 .debug_info    0x00024865       0xba /Applications/MapleIDE.app/Contents/Resources/Java/hardware/tools/arm/bin/../lib/gcc/arm-none-eabi/4.4.1/thumb2/libgcc.a(_aeabi_ldivmod.o)
 .debug_info    0x0002491f       0xba /Applications/MapleIDE.app/Contents/Resources/Java/hardware/tools/arm/bin/../lib/gcc/arm-none-eabi/4.4.1/thumb2/libgcc.a(_aeabi_uldivmod.o)
 .debug_info    0x000249d9       0xca /Applications/MapleIDE.app/Contents/Resources/Java/hardware/tools/arm/bin/../lib/gcc/arm-none-eabi/4.4.1/thumb2/libgcc.a(_fixdfdi.o)
 .debug_info    0x00024aa3       0xf4 /Applications/MapleIDE.app/Contents/Resources/Java/hardware/tools/arm/bin/../lib/gcc/arm-none-eabi/4.4.1/thumb2/libgcc.a(_fixunsdfdi.o)
 .debug_info    0x00024b97       0xe2 /Applications/MapleIDE.app/Contents/Resources/Java/hardware/tools/arm/bin/../lib/gcc/arm-none-eabi/4.4.1/thumb2/libgcc.a(bpabi.o)
 .debug_info    0x00024c79       0xc0 /Applications/MapleIDE.app/Contents/Resources/Java/hardware/tools/arm/bin/../lib/gcc/arm-none-eabi/4.4.1/thumb2/libgcc.a(_dvmd_tls.o)
 .debug_info    0x00024d39       0xbf /Applications/MapleIDE.app/Contents/Resources/Java/hardware/tools/arm/bin/../lib/gcc/arm-none-eabi/4.4.1/thumb2/libgcc.a(_arm_fixunsdfsi.o)
 .debug_info    0x00024df8      0x665 /Applications/MapleIDE.app/Contents/Resources/Java/hardware/tools/arm/bin/../lib/gcc/arm-none-eabi/4.4.1/thumb2/libgcc.a(_divdi3.o)
 .debug_info    0x0002545d      0x63f /Applications/MapleIDE.app/Contents/Resources/Java/hardware/tools/arm/bin/../lib/gcc/arm-none-eabi/4.4.1/thumb2/libgcc.a(_udivdi3.o)
 .debug_info    0x00025a9c       0xc0 /Applications/MapleIDE.app/Contents/Resources/Java/hardware/tools/arm/bin/../lib/gcc/arm-none-eabi/4.4.1/thumb2/libgcc.a(_udivsi3.o)
 .debug_info    0x00025b5c       0xc0 /Applications/MapleIDE.app/Contents/Resources/Java/hardware/tools/arm/bin/../lib/gcc/arm-none-eabi/4.4.1/thumb2/libgcc.a(_divsi3.o)
 .debug_info    0x00025c1c       0x8f /Applications/MapleIDE.app/Contents/Resources/Java/hardware/tools/arm/bin/../lib/gcc/arm-none-eabi/4.4.1/thumb2/crtn.o

.debug_abbrev   0x00000000     0x76dd
 *(.debug_abbrev)
 .debug_abbrev  0x00000000       0x12 /Applications/MapleIDE.app/Contents/Resources/Java/hardware/tools/arm/bin/../lib/gcc/arm-none-eabi/4.4.1/thumb2/crti.o
 .debug_abbrev  0x00000012      0x22b build/../../libmaple/libmaple/adc.o
 .debug_abbrev  0x0000023d      0x16a build/../../libmaple/libmaple/bkp.o
 .debug_abbrev  0x000003a7       0x2c build/../../libmaple/libmaple/dac.o
 .debug_abbrev  0x000003d3      0x357 build/../../libmaple/libmaple/dma.o
 .debug_abbrev  0x0000072a      0x216 build/../../libmaple/libmaple/exti.o
 .debug_abbrev  0x00000940       0xf4 build/../../libmaple/libmaple/flash.o
 .debug_abbrev  0x00000a34       0x2c build/../../libmaple/libmaple/fsmc.o
 .debug_abbrev  0x00000a60      0x16c build/../../libmaple/libmaple/gpio.o
 .debug_abbrev  0x00000bcc       0xb1 build/../../libmaple/libmaple/iwdg.o
 .debug_abbrev  0x00000c7d      0x135 build/../../libmaple/libmaple/nvic.o
 .debug_abbrev  0x00000db2       0x5b build/../../libmaple/libmaple/pwr.o
 .debug_abbrev  0x00000e0d      0x3dd build/../../libmaple/libmaple/i2c.o
 .debug_abbrev  0x000011ea      0x1f4 build/../../libmaple/libmaple/rcc.o
 .debug_abbrev  0x000013de      0x269 build/../../libmaple/libmaple/spi.o
 .debug_abbrev  0x00001647      0x1b8 build/../../libmaple/libmaple/syscalls.o
 .debug_abbrev  0x000017ff       0xed build/../../libmaple/libmaple/systick.o
 .debug_abbrev  0x000018ec      0x39f build/../../libmaple/libmaple/timer.o
 .debug_abbrev  0x00001c8b      0x313 build/../../libmaple/libmaple/usart.o
 .debug_abbrev  0x00001f9e      0x2ce build/../../libmaple/libmaple/util.o
 .debug_abbrev  0x0000226c      0x367 build/../../libmaple/libmaple/usb/usb.o
 .debug_abbrev  0x000025d3      0x18e build/../../libmaple/libmaple/usb/usb_reg_map.o
 .debug_abbrev  0x00002761      0x43f build/../../libmaple/libmaple/usb/usb_cdcacm.o
 .debug_abbrev  0x00002ba0      0x319 build/../../libmaple/libmaple/usb/usb_lib/usb_core.o
 .debug_abbrev  0x00002eb9      0x104 build/../../libmaple/libmaple/usb/usb_lib/usb_init.o
 .debug_abbrev  0x00002fbd       0xb5 build/../../libmaple/libmaple/usb/usb_lib/usb_mem.o
 .debug_abbrev  0x00003072      0x1d6 build/../../libmaple/libmaple/usb/usb_lib/usb_regs.o
 .debug_abbrev  0x00003248       0x8a build/../../libmaple/wirish/wirish_math.o
 .debug_abbrev  0x000032d2      0x201 build/../../libmaple/wirish/Print.o
 .debug_abbrev  0x000034d3      0x2bb build/../../libmaple/wirish/boards.o
 .debug_abbrev  0x0000378e       0x16 build/../../libmaple/wirish/boards/maple.o
 .debug_abbrev  0x000037a4      0x1d4 build/../../libmaple/wirish/boards/maple_mini.o
 .debug_abbrev  0x00003978       0x16 build/../../libmaple/wirish/boards/maple_native.o
 .debug_abbrev  0x0000398e       0x16 build/../../libmaple/wirish/boards/maple_RET6.o
 .debug_abbrev  0x000039a4       0x16 build/../../libmaple/wirish/boards/olimex_stm32_h103.o
 .debug_abbrev  0x000039ba      0x3c2 build/../../libmaple/wirish/comm/HardwareSerial.o
 .debug_abbrev  0x00003d7c      0x3b7 build/../../libmaple/wirish/comm/HardwareSPI.o
 .debug_abbrev  0x00004133      0x376 build/../../libmaple/wirish/HardwareTimer.o
 .debug_abbrev  0x000044a9      0x32f build/../../libmaple/wirish/usb_serial.o
 .debug_abbrev  0x000047d8       0x2b build/../../libmaple/wirish/cxxabi-compat.o
 .debug_abbrev  0x00004803       0xaa build/../../libmaple/wirish/wirish_shift.o
 .debug_abbrev  0x000048ad      0x144 build/../../libmaple/wirish/wirish_analog.o
 .debug_abbrev  0x000049f1       0xe7 build/../../libmaple/wirish/wirish_time.o
 .debug_abbrev  0x00004ad8      0x1ab build/../../libmaple/wirish/pwm.o
 .debug_abbrev  0x00004c83      0x1aa build/../../libmaple/wirish/ext_interrupts.o
 .debug_abbrev  0x00004e2d      0x26b build/../../libmaple/wirish/wirish_digital.o
 .debug_abbrev  0x00005098      0x377 build/../../libmaple/libraries/Servo/Servo.o
 .debug_abbrev  0x0000540f      0x2b4 build/../../libmaple/libraries/LiquidCrystal/LiquidCrystal.o
 .debug_abbrev  0x000056c3      0x2d0 build/../../libmaple/libraries/Wire/Wire.o
 .debug_abbrev  0x00005993      0x488 build/../../libmaple/libraries/SDfat/Sd2Card.o
 .debug_abbrev  0x00005e1b      0x761 build/../../libmaple/libraries/SDfat/SdFile.o
 .debug_abbrev  0x0000657c      0x4f6 build/../../libmaple/libraries/SDfat/SdVolume.o
 .debug_abbrev  0x00006a72      0x780 build/main.o
 .debug_abbrev  0x000071f2       0x14 /Applications/MapleIDE.app/Contents/Resources/Java/hardware/tools/arm/bin/../lib/gcc/arm-none-eabi/4.4.1/thumb2/libgcc.a(_arm_addsubdf3.o)
 .debug_abbrev  0x00007206       0x14 /Applications/MapleIDE.app/Contents/Resources/Java/hardware/tools/arm/bin/../lib/gcc/arm-none-eabi/4.4.1/thumb2/libgcc.a(_arm_muldivdf3.o)
 .debug_abbrev  0x0000721a       0x14 /Applications/MapleIDE.app/Contents/Resources/Java/hardware/tools/arm/bin/../lib/gcc/arm-none-eabi/4.4.1/thumb2/libgcc.a(_arm_cmpdf2.o)
 .debug_abbrev  0x0000722e       0x14 /Applications/MapleIDE.app/Contents/Resources/Java/hardware/tools/arm/bin/../lib/gcc/arm-none-eabi/4.4.1/thumb2/libgcc.a(_arm_fixdfsi.o)
 .debug_abbrev  0x00007242       0x14 /Applications/MapleIDE.app/Contents/Resources/Java/hardware/tools/arm/bin/../lib/gcc/arm-none-eabi/4.4.1/thumb2/libgcc.a(_aeabi_ldivmod.o)
 .debug_abbrev  0x00007256       0x14 /Applications/MapleIDE.app/Contents/Resources/Java/hardware/tools/arm/bin/../lib/gcc/arm-none-eabi/4.4.1/thumb2/libgcc.a(_aeabi_uldivmod.o)
 .debug_abbrev  0x0000726a       0x66 /Applications/MapleIDE.app/Contents/Resources/Java/hardware/tools/arm/bin/../lib/gcc/arm-none-eabi/4.4.1/thumb2/libgcc.a(_fixdfdi.o)
 .debug_abbrev  0x000072d0       0x7c /Applications/MapleIDE.app/Contents/Resources/Java/hardware/tools/arm/bin/../lib/gcc/arm-none-eabi/4.4.1/thumb2/libgcc.a(_fixunsdfdi.o)
 .debug_abbrev  0x0000734c       0x6c /Applications/MapleIDE.app/Contents/Resources/Java/hardware/tools/arm/bin/../lib/gcc/arm-none-eabi/4.4.1/thumb2/libgcc.a(bpabi.o)
 .debug_abbrev  0x000073b8       0x14 /Applications/MapleIDE.app/Contents/Resources/Java/hardware/tools/arm/bin/../lib/gcc/arm-none-eabi/4.4.1/thumb2/libgcc.a(_dvmd_tls.o)
 .debug_abbrev  0x000073cc       0x14 /Applications/MapleIDE.app/Contents/Resources/Java/hardware/tools/arm/bin/../lib/gcc/arm-none-eabi/4.4.1/thumb2/libgcc.a(_arm_fixunsdfsi.o)
 .debug_abbrev  0x000073e0      0x169 /Applications/MapleIDE.app/Contents/Resources/Java/hardware/tools/arm/bin/../lib/gcc/arm-none-eabi/4.4.1/thumb2/libgcc.a(_divdi3.o)
 .debug_abbrev  0x00007549      0x15a /Applications/MapleIDE.app/Contents/Resources/Java/hardware/tools/arm/bin/../lib/gcc/arm-none-eabi/4.4.1/thumb2/libgcc.a(_udivdi3.o)
 .debug_abbrev  0x000076a3       0x14 /Applications/MapleIDE.app/Contents/Resources/Java/hardware/tools/arm/bin/../lib/gcc/arm-none-eabi/4.4.1/thumb2/libgcc.a(_udivsi3.o)
 .debug_abbrev  0x000076b7       0x14 /Applications/MapleIDE.app/Contents/Resources/Java/hardware/tools/arm/bin/../lib/gcc/arm-none-eabi/4.4.1/thumb2/libgcc.a(_divsi3.o)
 .debug_abbrev  0x000076cb       0x12 /Applications/MapleIDE.app/Contents/Resources/Java/hardware/tools/arm/bin/../lib/gcc/arm-none-eabi/4.4.1/thumb2/crtn.o

.debug_line     0x00000000     0xab94
 *(.debug_line)
 .debug_line    0x00000000       0x6f /Applications/MapleIDE.app/Contents/Resources/Java/hardware/tools/arm/bin/../lib/gcc/arm-none-eabi/4.4.1/thumb2/crti.o
 .debug_line    0x0000006f      0x14f build/../../libmaple/libmaple/adc.o
 .debug_line    0x000001be      0x133 build/../../libmaple/libmaple/bkp.o
 .debug_line    0x000002f1       0x9c build/../../libmaple/libmaple/dac.o
 .debug_line    0x0000038d      0x275 build/../../libmaple/libmaple/dma.o
 .debug_line    0x00000602      0x1da build/../../libmaple/libmaple/exti.o
 .debug_line    0x000007dc       0xbf build/../../libmaple/libmaple/flash.o
 .debug_line    0x0000089b       0x9e build/../../libmaple/libmaple/fsmc.o
 .debug_line    0x00000939      0x12b build/../../libmaple/libmaple/gpio.o
 .debug_line    0x00000a64       0x8e build/../../libmaple/libmaple/iwdg.o
 .debug_line    0x00000af2       0xcb build/../../libmaple/libmaple/nvic.o
 .debug_line    0x00000bbd       0xa7 build/../../libmaple/libmaple/pwr.o
 .debug_line    0x00000c64      0x617 build/../../libmaple/libmaple/i2c.o
 .debug_line    0x0000127b      0x137 build/../../libmaple/libmaple/rcc.o
 .debug_line    0x000013b2      0x21b build/../../libmaple/libmaple/spi.o
 .debug_line    0x000015cd      0x46a build/../../libmaple/libmaple/syscalls.o
 .debug_line    0x00001a37       0xc6 build/../../libmaple/libmaple/systick.o
 .debug_line    0x00001afd      0x2cd build/../../libmaple/libmaple/timer.o
 .debug_line    0x00001dca      0x20f build/../../libmaple/libmaple/usart.o
 .debug_line    0x00001fd9      0x20e build/../../libmaple/libmaple/util.o
 .debug_line    0x000021e7      0x2b7 build/../../libmaple/libmaple/usb/usb.o
 .debug_line    0x0000249e      0x112 build/../../libmaple/libmaple/usb/usb_reg_map.o
 .debug_line    0x000025b0      0x46d build/../../libmaple/libmaple/usb/usb_cdcacm.o
 .debug_line    0x00002a1d      0x312 build/../../libmaple/libmaple/usb/usb_lib/usb_core.o
 .debug_line    0x00002d2f       0xc7 build/../../libmaple/libmaple/usb/usb_lib/usb_init.o
 .debug_line    0x00002df6       0xe1 build/../../libmaple/libmaple/usb/usb_lib/usb_mem.o
 .debug_line    0x00002ed7      0x4d5 build/../../libmaple/libmaple/usb/usb_lib/usb_regs.o
 .debug_line    0x000033ac      0x347 build/../../libmaple/wirish/wirish_math.o
 .debug_line    0x000036f3      0x5e2 build/../../libmaple/wirish/Print.o
 .debug_line    0x00003cd5      0x24d build/../../libmaple/wirish/boards.o
 .debug_line    0x00003f22       0x47 build/../../libmaple/wirish/boards/maple.o
 .debug_line    0x00003f69      0x167 build/../../libmaple/wirish/boards/maple_mini.o
 .debug_line    0x000040d0       0x4e build/../../libmaple/wirish/boards/maple_native.o
 .debug_line    0x0000411e       0x4c build/../../libmaple/wirish/boards/maple_RET6.o
 .debug_line    0x0000416a       0x53 build/../../libmaple/wirish/boards/olimex_stm32_h103.o
 .debug_line    0x000041bd      0x293 build/../../libmaple/wirish/comm/HardwareSerial.o
 .debug_line    0x00004450      0x740 build/../../libmaple/wirish/comm/HardwareSPI.o
 .debug_line    0x00004b90      0x5f9 build/../../libmaple/wirish/HardwareTimer.o
 .debug_line    0x00005189      0x677 build/../../libmaple/wirish/usb_serial.o
 .debug_line    0x00005800       0x55 build/../../libmaple/wirish/cxxabi-compat.o
 .debug_line    0x00005855      0x504 build/../../libmaple/wirish/wirish_shift.o
 .debug_line    0x00005d59      0x148 build/../../libmaple/wirish/wirish_analog.o
 .debug_line    0x00005ea1      0x177 build/../../libmaple/wirish/wirish_time.o
 .debug_line    0x00006018      0x144 build/../../libmaple/wirish/pwm.o
 .debug_line    0x0000615c      0x17c build/../../libmaple/wirish/ext_interrupts.o
 .debug_line    0x000062d8      0x210 build/../../libmaple/wirish/wirish_digital.o
 .debug_line    0x000064e8      0x54b build/../../libmaple/libraries/Servo/Servo.o
 .debug_line    0x00006a33      0x896 build/../../libmaple/libraries/LiquidCrystal/LiquidCrystal.o
 .debug_line    0x000072c9      0x750 build/../../libmaple/libraries/Wire/Wire.o
 .debug_line    0x00007a19      0x88b build/../../libmaple/libraries/SDfat/Sd2Card.o
 .debug_line    0x000082a4      0xbbf build/../../libmaple/libraries/SDfat/SdFile.o
 .debug_line    0x00008e63      0x3dd build/../../libmaple/libraries/SDfat/SdVolume.o
 .debug_line    0x00009240      0xcae build/main.o
 .debug_line    0x00009eee      0x20e /Applications/MapleIDE.app/Contents/Resources/Java/hardware/tools/arm/bin/../lib/gcc/arm-none-eabi/4.4.1/thumb2/libgcc.a(_arm_addsubdf3.o)
 .debug_line    0x0000a0fc      0x22e /Applications/MapleIDE.app/Contents/Resources/Java/hardware/tools/arm/bin/../lib/gcc/arm-none-eabi/4.4.1/thumb2/libgcc.a(_arm_muldivdf3.o)
 .debug_line    0x0000a32a      0x114 /Applications/MapleIDE.app/Contents/Resources/Java/hardware/tools/arm/bin/../lib/gcc/arm-none-eabi/4.4.1/thumb2/libgcc.a(_arm_cmpdf2.o)
 .debug_line    0x0000a43e       0x8c /Applications/MapleIDE.app/Contents/Resources/Java/hardware/tools/arm/bin/../lib/gcc/arm-none-eabi/4.4.1/thumb2/libgcc.a(_arm_fixdfsi.o)
 .debug_line    0x0000a4ca       0x77 /Applications/MapleIDE.app/Contents/Resources/Java/hardware/tools/arm/bin/../lib/gcc/arm-none-eabi/4.4.1/thumb2/libgcc.a(_aeabi_ldivmod.o)
 .debug_line    0x0000a541       0x77 /Applications/MapleIDE.app/Contents/Resources/Java/hardware/tools/arm/bin/../lib/gcc/arm-none-eabi/4.4.1/thumb2/libgcc.a(_aeabi_uldivmod.o)
 .debug_line    0x0000a5b8       0x7b /Applications/MapleIDE.app/Contents/Resources/Java/hardware/tools/arm/bin/../lib/gcc/arm-none-eabi/4.4.1/thumb2/libgcc.a(_fixdfdi.o)
 .debug_line    0x0000a633       0x82 /Applications/MapleIDE.app/Contents/Resources/Java/hardware/tools/arm/bin/../lib/gcc/arm-none-eabi/4.4.1/thumb2/libgcc.a(_fixunsdfdi.o)
 .debug_line    0x0000a6b5       0x79 /Applications/MapleIDE.app/Contents/Resources/Java/hardware/tools/arm/bin/../lib/gcc/arm-none-eabi/4.4.1/thumb2/libgcc.a(bpabi.o)
 .debug_line    0x0000a72e       0x75 /Applications/MapleIDE.app/Contents/Resources/Java/hardware/tools/arm/bin/../lib/gcc/arm-none-eabi/4.4.1/thumb2/libgcc.a(_dvmd_tls.o)
 .debug_line    0x0000a7a3       0x88 /Applications/MapleIDE.app/Contents/Resources/Java/hardware/tools/arm/bin/../lib/gcc/arm-none-eabi/4.4.1/thumb2/libgcc.a(_arm_fixunsdfsi.o)
 .debug_line    0x0000a82b       0xe1 /Applications/MapleIDE.app/Contents/Resources/Java/hardware/tools/arm/bin/../lib/gcc/arm-none-eabi/4.4.1/thumb2/libgcc.a(_divdi3.o)
 .debug_line    0x0000a90c       0xd5 /Applications/MapleIDE.app/Contents/Resources/Java/hardware/tools/arm/bin/../lib/gcc/arm-none-eabi/4.4.1/thumb2/libgcc.a(_udivdi3.o)
 .debug_line    0x0000a9e1       0x98 /Applications/MapleIDE.app/Contents/Resources/Java/hardware/tools/arm/bin/../lib/gcc/arm-none-eabi/4.4.1/thumb2/libgcc.a(_udivsi3.o)
 .debug_line    0x0000aa79       0xa9 /Applications/MapleIDE.app/Contents/Resources/Java/hardware/tools/arm/bin/../lib/gcc/arm-none-eabi/4.4.1/thumb2/libgcc.a(_divsi3.o)
 .debug_line    0x0000ab22       0x72 /Applications/MapleIDE.app/Contents/Resources/Java/hardware/tools/arm/bin/../lib/gcc/arm-none-eabi/4.4.1/thumb2/crtn.o

.debug_frame    0x00000000     0x3fc4
 *(.debug_frame)
 .debug_frame   0x00000000       0xb4 build/../../libmaple/libmaple/adc.o
 .debug_frame   0x000000b4       0xbc build/../../libmaple/libmaple/bkp.o
 .debug_frame   0x00000170      0x238 build/../../libmaple/libmaple/dma.o
 .debug_frame   0x000003a8      0x12c build/../../libmaple/libmaple/exti.o
 .debug_frame   0x000004d4       0x30 build/../../libmaple/libmaple/flash.o
 .debug_frame   0x00000504       0xb0 build/../../libmaple/libmaple/gpio.o
 .debug_frame   0x000005b4       0x30 build/../../libmaple/libmaple/iwdg.o
 .debug_frame   0x000005e4       0x5c build/../../libmaple/libmaple/nvic.o
 .debug_frame   0x00000640       0x2c build/../../libmaple/libmaple/pwr.o
 .debug_frame   0x0000066c      0x1ac build/../../libmaple/libmaple/i2c.o
 .debug_frame   0x00000818       0x9c build/../../libmaple/libmaple/rcc.o
 .debug_frame   0x000008b4      0x13c build/../../libmaple/libmaple/spi.o
 .debug_frame   0x000009f0      0x104 build/../../libmaple/libmaple/syscalls.o
 .debug_frame   0x00000af4       0x6c build/../../libmaple/libmaple/systick.o
 .debug_frame   0x00000b60      0x214 build/../../libmaple/libmaple/timer.o
 .debug_frame   0x00000d74      0x148 build/../../libmaple/libmaple/usart.o
 .debug_frame   0x00000ebc      0x134 build/../../libmaple/libmaple/util.o
 .debug_frame   0x00000ff0       0xfc build/../../libmaple/libmaple/usb/usb.o
 .debug_frame   0x000010ec       0x84 build/../../libmaple/libmaple/usb/usb_reg_map.o
 .debug_frame   0x00001170      0x270 build/../../libmaple/libmaple/usb/usb_cdcacm.o
 .debug_frame   0x000013e0      0x1dc build/../../libmaple/libmaple/usb/usb_lib/usb_core.o
 .debug_frame   0x000015bc       0x2c build/../../libmaple/libmaple/usb/usb_lib/usb_init.o
 .debug_frame   0x000015e8       0x3c build/../../libmaple/libmaple/usb/usb_lib/usb_mem.o
 .debug_frame   0x00001624      0x3dc build/../../libmaple/libmaple/usb/usb_lib/usb_regs.o
 .debug_frame   0x00001a00       0x58 build/../../libmaple/wirish/wirish_math.o
 .debug_frame   0x00001a58      0x330 build/../../libmaple/wirish/Print.o
 .debug_frame   0x00001d88       0x8c build/../../libmaple/wirish/boards.o
 .debug_frame   0x00001e14       0x40 build/../../libmaple/wirish/boards/maple_mini.o
 .debug_frame   0x00001e54      0x11c build/../../libmaple/wirish/comm/HardwareSerial.o
 .debug_frame   0x00001f70      0x2a0 build/../../libmaple/wirish/comm/HardwareSPI.o
 .debug_frame   0x00002210      0x1a0 build/../../libmaple/wirish/HardwareTimer.o
 .debug_frame   0x000023b0      0x19c build/../../libmaple/wirish/usb_serial.o
 .debug_frame   0x0000254c       0x20 build/../../libmaple/wirish/cxxabi-compat.o
 .debug_frame   0x0000256c       0x38 build/../../libmaple/wirish/wirish_shift.o
 .debug_frame   0x000025a4       0x20 build/../../libmaple/wirish/wirish_analog.o
 .debug_frame   0x000025c4       0x40 build/../../libmaple/wirish/wirish_time.o
 .debug_frame   0x00002604       0x20 build/../../libmaple/wirish/pwm.o
 .debug_frame   0x00002624       0x40 build/../../libmaple/wirish/ext_interrupts.o
 .debug_frame   0x00002664       0xa8 build/../../libmaple/wirish/wirish_digital.o
 .debug_frame   0x0000270c      0x16c build/../../libmaple/libraries/Servo/Servo.o
 .debug_frame   0x00002878      0x3e0 build/../../libmaple/libraries/LiquidCrystal/LiquidCrystal.o
 .debug_frame   0x00002c58      0x2b4 build/../../libmaple/libraries/Wire/Wire.o
 .debug_frame   0x00002f0c      0x2f8 build/../../libmaple/libraries/SDfat/Sd2Card.o
 .debug_frame   0x00003204      0x604 build/../../libmaple/libraries/SDfat/SdFile.o
 .debug_frame   0x00003808      0x18c build/../../libmaple/libraries/SDfat/SdVolume.o
 .debug_frame   0x00003994      0x4a0 build/main.o
 .debug_frame   0x00003e34       0x38 /Applications/MapleIDE.app/Contents/Resources/Java/hardware/tools/arm/bin/../lib/gcc/arm-none-eabi/4.4.1/thumb2/libgcc.a(_fixdfdi.o)
 .debug_frame   0x00003e6c       0x30 /Applications/MapleIDE.app/Contents/Resources/Java/hardware/tools/arm/bin/../lib/gcc/arm-none-eabi/4.4.1/thumb2/libgcc.a(_fixunsdfdi.o)
 .debug_frame   0x00003e9c       0x60 /Applications/MapleIDE.app/Contents/Resources/Java/hardware/tools/arm/bin/../lib/gcc/arm-none-eabi/4.4.1/thumb2/libgcc.a(bpabi.o)
 .debug_frame   0x00003efc       0x44 /Applications/MapleIDE.app/Contents/Resources/Java/hardware/tools/arm/bin/../lib/gcc/arm-none-eabi/4.4.1/thumb2/libgcc.a(_divdi3.o)
 .debug_frame   0x00003f40       0x44 /Applications/MapleIDE.app/Contents/Resources/Java/hardware/tools/arm/bin/../lib/gcc/arm-none-eabi/4.4.1/thumb2/libgcc.a(_udivdi3.o)
 .debug_frame   0x00003f84       0x20 /Applications/MapleIDE.app/Contents/Resources/Java/hardware/tools/arm/bin/../lib/gcc/arm-none-eabi/4.4.1/thumb2/libgcc.a(_udivsi3.o)
 .debug_frame   0x00003fa4       0x20 /Applications/MapleIDE.app/Contents/Resources/Java/hardware/tools/arm/bin/../lib/gcc/arm-none-eabi/4.4.1/thumb2/libgcc.a(_divsi3.o)

.debug_str      0x00000000     0x93a4
 *(.debug_str)
 .debug_str     0x00000000      0x443 build/../../libmaple/libmaple/adc.o
                                0x499 (size before relaxing)
 .debug_str     0x00000443       0xa2 build/../../libmaple/libmaple/bkp.o
                                0x2c4 (size before relaxing)
 .debug_str     0x000004e5       0x1e build/../../libmaple/libmaple/dac.o
                                 0xf9 (size before relaxing)
 .debug_str     0x00000503      0x799 build/../../libmaple/libmaple/dma.o
                                0xa66 (size before relaxing)
 .debug_str     0x00000c9c      0x28a build/../../libmaple/libmaple/exti.o
                                0x748 (size before relaxing)
 .debug_str     0x00000f26       0x6f build/../../libmaple/libmaple/flash.o
                                0x180 (size before relaxing)
 .debug_str     0x00000f95       0x1f build/../../libmaple/libmaple/fsmc.o
                                 0xfa (size before relaxing)
 .debug_str     0x00000fb4      0x37e build/../../libmaple/libmaple/gpio.o
                                0x6bf (size before relaxing)
 .debug_str     0x00001332       0xa3 build/../../libmaple/libmaple/iwdg.o
                                0x19d (size before relaxing)
 .debug_str     0x000013d5       0xc9 build/../../libmaple/libmaple/nvic.o
                                0x51f (size before relaxing)
 .debug_str     0x0000149e       0x27 build/../../libmaple/libmaple/pwr.o
                                0x206 (size before relaxing)
 .debug_str     0x000014c5      0x2ee build/../../libmaple/libmaple/i2c.o
                                0xbb5 (size before relaxing)
 .debug_str     0x000017b3      0x2d6 build/../../libmaple/libmaple/rcc.o
                                0x52e (size before relaxing)
 .debug_str     0x00001a89      0x378 build/../../libmaple/libmaple/spi.o
                                0x9c3 (size before relaxing)
 .debug_str     0x00001e01      0x17f build/../../libmaple/libmaple/syscalls.o
                                0x2b1 (size before relaxing)
 .debug_str     0x00001f80       0xa5 build/../../libmaple/libmaple/systick.o
                                0x1a6 (size before relaxing)
 .debug_str     0x00002025      0x4d3 build/../../libmaple/libmaple/timer.o
                                0xb02 (size before relaxing)
 .debug_str     0x000024f8      0x1de build/../../libmaple/libmaple/usart.o
                                0x797 (size before relaxing)
 .debug_str     0x000026d6       0xf8 build/../../libmaple/libmaple/util.o
                                0x87b (size before relaxing)
 .debug_str     0x000027ce      0x5b1 build/../../libmaple/libmaple/usb/usb.o
                                0x8b7 (size before relaxing)
 .debug_str     0x00002d7f       0xa2 build/../../libmaple/libmaple/usb/usb_reg_map.o
                                0x1ca (size before relaxing)
 .debug_str     0x00002e21      0x7fc build/../../libmaple/libmaple/usb/usb_cdcacm.o
                               0x13d1 (size before relaxing)
 .debug_str     0x0000361d      0x3ef build/../../libmaple/libmaple/usb/usb_lib/usb_core.o
                                0x9a9 (size before relaxing)
 .debug_str     0x00003a0c       0x5a build/../../libmaple/libmaple/usb/usb_lib/usb_init.o
                                0x494 (size before relaxing)
 .debug_str     0x00003a66       0x86 build/../../libmaple/libmaple/usb/usb_lib/usb_mem.o
                                0x14a (size before relaxing)
 .debug_str     0x00003aec      0x3f4 build/../../libmaple/libmaple/usb/usb_lib/usb_regs.o
                                0x4d2 (size before relaxing)
 .debug_str     0x00003ee0       0x93 build/../../libmaple/wirish/wirish_math.o
                                0x18f (size before relaxing)
 .debug_str     0x00003f73      0x2b4 build/../../libmaple/wirish/Print.o
                                0x401 (size before relaxing)
 .debug_str     0x00004227      0x36a build/../../libmaple/wirish/boards.o
                                0xba6 (size before relaxing)
 .debug_str     0x00004591       0x27 build/../../libmaple/wirish/boards/maple.o
                                 0x9b (size before relaxing)
 .debug_str     0x000045b8      0x19a build/../../libmaple/wirish/boards/maple_mini.o
                                0x5f1 (size before relaxing)
 .debug_str     0x00004752       0x2e build/../../libmaple/wirish/boards/maple_native.o
                                 0xa2 (size before relaxing)
 .debug_str     0x00004780       0x2c build/../../libmaple/wirish/boards/maple_RET6.o
                                 0xa0 (size before relaxing)
 .debug_str     0x000047ac       0x33 build/../../libmaple/wirish/boards/olimex_stm32_h103.o
                                 0xa7 (size before relaxing)
 .debug_str     0x000047df      0x174 build/../../libmaple/wirish/comm/HardwareSerial.o
                                0xab8 (size before relaxing)
 .debug_str     0x00004953      0x394 build/../../libmaple/wirish/comm/HardwareSPI.o
                                0xda2 (size before relaxing)
 .debug_str     0x00004ce7      0x8e1 build/../../libmaple/wirish/HardwareTimer.o
                                0xd5e (size before relaxing)
 .debug_str     0x000055c8      0x193 build/../../libmaple/wirish/usb_serial.o
                                0x4fc (size before relaxing)
 .debug_str     0x0000575b       0x3b build/../../libmaple/wirish/cxxabi-compat.o
                                 0xaf (size before relaxing)
 .debug_str     0x00005796       0x51 build/../../libmaple/wirish/wirish_shift.o
                                0x193 (size before relaxing)
 .debug_str     0x000057e7       0x43 build/../../libmaple/wirish/wirish_analog.o
                                0x46c (size before relaxing)
 .debug_str     0x0000582a       0x59 build/../../libmaple/wirish/wirish_time.o
                                0x174 (size before relaxing)
 .debug_str     0x00005883       0x40 build/../../libmaple/wirish/pwm.o
                                0x489 (size before relaxing)
 .debug_str     0x000058c3       0x97 build/../../libmaple/wirish/ext_interrupts.o
                                0x61a (size before relaxing)
 .debug_str     0x0000595a      0x156 build/../../libmaple/wirish/wirish_digital.o
                                0x6d3 (size before relaxing)
 .debug_str     0x00005ab0      0x1b2 build/../../libmaple/libraries/Servo/Servo.o
                                0x78b (size before relaxing)
 .debug_str     0x00005c62      0x4ba build/../../libmaple/libraries/LiquidCrystal/LiquidCrystal.o
                                0x6b5 (size before relaxing)
 .debug_str     0x0000611c      0x369 build/../../libmaple/libraries/Wire/Wire.o
                                0x5b4 (size before relaxing)
 .debug_str     0x00006485      0xb39 build/../../libmaple/libraries/SDfat/Sd2Card.o
                               0x1461 (size before relaxing)
 .debug_str     0x00006fbe     0x1801 build/../../libmaple/libraries/SDfat/SdFile.o
                               0x2bcd (size before relaxing)
 .debug_str     0x000087bf       0x6f build/../../libmaple/libraries/SDfat/SdVolume.o
                               0x2093 (size before relaxing)
 .debug_str     0x0000882e      0x9b9 build/main.o
                               0x2b90 (size before relaxing)
 .debug_str     0x000091e7       0xb6 /Applications/MapleIDE.app/Contents/Resources/Java/hardware/tools/arm/bin/../lib/gcc/arm-none-eabi/4.4.1/thumb2/libgcc.a(_fixdfdi.o)
                                0x156 (size before relaxing)
 .debug_str     0x0000929d       0x1d /Applications/MapleIDE.app/Contents/Resources/Java/hardware/tools/arm/bin/../lib/gcc/arm-none-eabi/4.4.1/thumb2/libgcc.a(_fixunsdfdi.o)
                                0x162 (size before relaxing)
 .debug_str     0x000092ba       0x73 /Applications/MapleIDE.app/Contents/Resources/Java/hardware/tools/arm/bin/../lib/gcc/arm-none-eabi/4.4.1/thumb2/libgcc.a(bpabi.o)
                                0x100 (size before relaxing)
 .debug_str     0x0000932d       0x6d /Applications/MapleIDE.app/Contents/Resources/Java/hardware/tools/arm/bin/../lib/gcc/arm-none-eabi/4.4.1/thumb2/libgcc.a(_divdi3.o)
                                0x1ce (size before relaxing)
 .debug_str     0x0000939a        0xa /Applications/MapleIDE.app/Contents/Resources/Java/hardware/tools/arm/bin/../lib/gcc/arm-none-eabi/4.4.1/thumb2/libgcc.a(_udivdi3.o)
                                0x1cf (size before relaxing)

.debug_loc      0x00000000     0xb7d5
 *(.debug_loc)
 .debug_loc     0x00000000      0x104 build/../../libmaple/libmaple/adc.o
 .debug_loc     0x00000104       0xfd build/../../libmaple/libmaple/bkp.o
 .debug_loc     0x00000201      0x564 build/../../libmaple/libmaple/dma.o
 .debug_loc     0x00000765      0x1d1 build/../../libmaple/libmaple/exti.o
 .debug_loc     0x00000936      0x1a1 build/../../libmaple/libmaple/gpio.o
 .debug_loc     0x00000ad7       0x26 build/../../libmaple/libmaple/iwdg.o
 .debug_loc     0x00000afd       0x89 build/../../libmaple/libmaple/nvic.o
 .debug_loc     0x00000b86       0x1f build/../../libmaple/libmaple/pwr.o
 .debug_loc     0x00000ba5      0x400 build/../../libmaple/libmaple/i2c.o
 .debug_loc     0x00000fa5      0x121 build/../../libmaple/libmaple/rcc.o
 .debug_loc     0x000010c6      0x31b build/../../libmaple/libmaple/spi.o
 .debug_loc     0x000013e1      0x188 build/../../libmaple/libmaple/syscalls.o
 .debug_loc     0x00001569       0x32 build/../../libmaple/libmaple/systick.o
 .debug_loc     0x0000159b      0x6fa build/../../libmaple/libmaple/timer.o
 .debug_loc     0x00001c95      0x26e build/../../libmaple/libmaple/usart.o
 .debug_loc     0x00001f03      0x22c build/../../libmaple/libmaple/util.o
 .debug_loc     0x0000212f      0x160 build/../../libmaple/libmaple/usb/usb.o
 .debug_loc     0x0000228f      0x168 build/../../libmaple/libmaple/usb/usb_reg_map.o
 .debug_loc     0x000023f7      0x49a build/../../libmaple/libmaple/usb/usb_cdcacm.o
 .debug_loc     0x00002891      0x677 build/../../libmaple/libmaple/usb/usb_lib/usb_core.o
 .debug_loc     0x00002f08       0x1f build/../../libmaple/libmaple/usb/usb_lib/usb_init.o
 .debug_loc     0x00002f27       0x6b build/../../libmaple/libmaple/usb/usb_lib/usb_mem.o
 .debug_loc     0x00002f92      0x5fc build/../../libmaple/libmaple/usb/usb_lib/usb_regs.o
 .debug_loc     0x0000358e       0xb6 build/../../libmaple/wirish/wirish_math.o
 .debug_loc     0x00003644      0xacf build/../../libmaple/wirish/Print.o
 .debug_loc     0x00004113      0x12f build/../../libmaple/wirish/boards.o
 .debug_loc     0x00004242       0x1f build/../../libmaple/wirish/boards/maple_mini.o
 .debug_loc     0x00004261      0x296 build/../../libmaple/wirish/comm/HardwareSerial.o
 .debug_loc     0x000044f7      0x761 build/../../libmaple/wirish/comm/HardwareSPI.o
 .debug_loc     0x00004c58      0x373 build/../../libmaple/wirish/HardwareTimer.o
 .debug_loc     0x00004fcb      0x3a2 build/../../libmaple/wirish/usb_serial.o
 .debug_loc     0x0000536d       0x97 build/../../libmaple/wirish/wirish_shift.o
 .debug_loc     0x00005404       0x26 build/../../libmaple/wirish/wirish_analog.o
 .debug_loc     0x0000542a       0x63 build/../../libmaple/wirish/wirish_time.o
 .debug_loc     0x0000548d       0x3c build/../../libmaple/wirish/pwm.o
 .debug_loc     0x000054c9      0x12e build/../../libmaple/wirish/ext_interrupts.o
 .debug_loc     0x000055f7      0x263 build/../../libmaple/wirish/wirish_digital.o
 .debug_loc     0x0000585a      0x3dd build/../../libmaple/libraries/Servo/Servo.o
 .debug_loc     0x00005c37     0x110b build/../../libmaple/libraries/LiquidCrystal/LiquidCrystal.o
 .debug_loc     0x00006d42      0x713 build/../../libmaple/libraries/Wire/Wire.o
 .debug_loc     0x00007455      0x906 build/../../libmaple/libraries/SDfat/Sd2Card.o
 .debug_loc     0x00007d5b     0x162d build/../../libmaple/libraries/SDfat/SdFile.o
 .debug_loc     0x00009388      0x63b build/../../libmaple/libraries/SDfat/SdVolume.o
 .debug_loc     0x000099c3      0xc69 build/main.o
 .debug_loc     0x0000a62c       0x67 /Applications/MapleIDE.app/Contents/Resources/Java/hardware/tools/arm/bin/../lib/gcc/arm-none-eabi/4.4.1/thumb2/libgcc.a(_fixdfdi.o)
 .debug_loc     0x0000a693       0x57 /Applications/MapleIDE.app/Contents/Resources/Java/hardware/tools/arm/bin/../lib/gcc/arm-none-eabi/4.4.1/thumb2/libgcc.a(_fixunsdfdi.o)
 .debug_loc     0x0000a6ea      0x11e /Applications/MapleIDE.app/Contents/Resources/Java/hardware/tools/arm/bin/../lib/gcc/arm-none-eabi/4.4.1/thumb2/libgcc.a(bpabi.o)
 .debug_loc     0x0000a808      0x7bb /Applications/MapleIDE.app/Contents/Resources/Java/hardware/tools/arm/bin/../lib/gcc/arm-none-eabi/4.4.1/thumb2/libgcc.a(_divdi3.o)
 .debug_loc     0x0000afc3      0x812 /Applications/MapleIDE.app/Contents/Resources/Java/hardware/tools/arm/bin/../lib/gcc/arm-none-eabi/4.4.1/thumb2/libgcc.a(_udivdi3.o)

.debug_macinfo  0x00000000   0x15bae9
 *(.debug_macinfo)
 .debug_macinfo
                0x00000000     0x47ab build/../../libmaple/libmaple/adc.o
 .debug_macinfo
                0x000047ab     0x3e97 build/../../libmaple/libmaple/bkp.o
 .debug_macinfo
                0x00008642     0x524d build/../../libmaple/libmaple/dac.o
 .debug_macinfo
                0x0000d88f     0x4bed build/../../libmaple/libmaple/dma.o
 .debug_macinfo
                0x0001247c     0x4f85 build/../../libmaple/libmaple/exti.o
 .debug_macinfo
                0x00017401     0x180d build/../../libmaple/libmaple/flash.o
 .debug_macinfo
                0x00018c0e     0x4e9a build/../../libmaple/libmaple/fsmc.o
 .debug_macinfo
                0x0001daa8     0x4ea8 build/../../libmaple/libmaple/gpio.o
 .debug_macinfo
                0x00022950     0x10b8 build/../../libmaple/libmaple/iwdg.o
 .debug_macinfo
                0x00023a08     0x19e9 build/../../libmaple/libmaple/nvic.o
 .debug_macinfo
                0x000253f1     0x3b48 build/../../libmaple/libmaple/pwr.o
 .debug_macinfo
                0x00028f39     0x72db build/../../libmaple/libmaple/i2c.o
 .debug_macinfo
                0x00030214     0x41c3 build/../../libmaple/libmaple/rcc.o
 .debug_macinfo
                0x000343d7     0x5ed6 build/../../libmaple/libmaple/spi.o
 .debug_macinfo
                0x0003a2ad     0x3ff4 build/../../libmaple/libmaple/syscalls.o
 .debug_macinfo
                0x0003e2a1     0x1116 build/../../libmaple/libmaple/systick.o
 .debug_macinfo
                0x0003f3b7     0x627c build/../../libmaple/libmaple/timer.o
 .debug_macinfo
                0x00045633     0x4856 build/../../libmaple/libmaple/usart.o
 .debug_macinfo
                0x00049e89     0x9232 build/../../libmaple/libmaple/util.o
 .debug_macinfo
                0x000530bb     0x5e57 build/../../libmaple/libmaple/usb/usb.o
 .debug_macinfo
                0x00058f12     0x1c81 build/../../libmaple/libmaple/usb/usb_reg_map.o
 .debug_macinfo
                0x0005ab93     0x6574 build/../../libmaple/libmaple/usb/usb_cdcacm.o
 .debug_macinfo
                0x00061107     0x2cfc build/../../libmaple/libmaple/usb/usb_lib/usb_core.o
 .debug_macinfo
                0x00063e03     0x2b4a build/../../libmaple/libmaple/usb/usb_lib/usb_init.o
 .debug_macinfo
                0x0006694d     0x2b4a build/../../libmaple/libmaple/usb/usb_lib/usb_mem.o
 .debug_macinfo
                0x00069497     0x2b4a build/../../libmaple/libmaple/usb/usb_lib/usb_regs.o
 .debug_macinfo
                0x0006bfe1     0x3838 build/../../libmaple/wirish/wirish_math.o
 .debug_macinfo
                0x0006f819     0x3ae6 build/../../libmaple/wirish/Print.o
 .debug_macinfo
                0x000732ff     0x8f67 build/../../libmaple/wirish/boards.o
 .debug_macinfo
                0x0007c266      0xdca build/../../libmaple/wirish/boards/maple.o
 .debug_macinfo
                0x0007d030     0x8680 build/../../libmaple/wirish/boards/maple_mini.o
 .debug_macinfo
                0x000856b0      0xdca build/../../libmaple/wirish/boards/maple_native.o
 .debug_macinfo
                0x0008647a      0xdca build/../../libmaple/wirish/boards/maple_RET6.o
 .debug_macinfo
                0x00087244      0xdca build/../../libmaple/wirish/boards/olimex_stm32_h103.o
 .debug_macinfo
                0x0008800e     0x96e7 build/../../libmaple/wirish/comm/HardwareSerial.o
 .debug_macinfo
                0x000916f5     0xf42c build/../../libmaple/wirish/comm/HardwareSPI.o
 .debug_macinfo
                0x000a0b21     0xb064 build/../../libmaple/wirish/HardwareTimer.o
 .debug_macinfo
                0x000abb85     0xf622 build/../../libmaple/wirish/usb_serial.o
 .debug_macinfo
                0x000bb1a7      0xdca build/../../libmaple/wirish/cxxabi-compat.o
 .debug_macinfo
                0x000bbf71     0xf420 build/../../libmaple/wirish/wirish_shift.o
 .debug_macinfo
                0x000cb391     0x86df build/../../libmaple/wirish/wirish_analog.o
 .debug_macinfo
                0x000d3a70     0x88c8 build/../../libmaple/wirish/wirish_time.o
 .debug_macinfo
                0x000dc338     0x86e2 build/../../libmaple/wirish/pwm.o
 .debug_macinfo
                0x000e4a1a     0x871d build/../../libmaple/wirish/ext_interrupts.o
 .debug_macinfo
                0x000ed137     0x8901 build/../../libmaple/wirish/wirish_digital.o
 .debug_macinfo
                0x000f5a38     0xb333 build/../../libmaple/libraries/Servo/Servo.o
 .debug_macinfo
                0x00100d6b    0x106f0 build/../../libmaple/libraries/LiquidCrystal/LiquidCrystal.o
 .debug_macinfo
                0x0011145b     0xf4f0 build/../../libmaple/libraries/Wire/Wire.o
 .debug_macinfo
                0x0012094b     0xfceb build/../../libmaple/libraries/SDfat/Sd2Card.o
 .debug_macinfo
                0x00130636     0xfee4 build/../../libmaple/libraries/SDfat/SdFile.o
 .debug_macinfo
                0x0014051a     0x9fa5 build/../../libmaple/libraries/SDfat/SdVolume.o
 .debug_macinfo
                0x0014a4bf    0x1162a build/main.o

.debug_weaknames
 *(.debug_weaknames)

.debug_funcnames
 *(.debug_funcnames)

.debug_typenames
 *(.debug_typenames)

.debug_varnames
 *(.debug_varnames)

.note.gnu.arm.ident
 *(.note.gnu.arm.ident)

.ARM.attributes
                0x00000000       0x27
 *(.ARM.attributes)
 .ARM.attributes
                0x00000000       0x19 /Applications/MapleIDE.app/Contents/Resources/Java/hardware/tools/arm/bin/../lib/gcc/arm-none-eabi/4.4.1/thumb2/crti.o
 .ARM.attributes
                0x00000019       0x29 /Applications/MapleIDE.app/Contents/Resources/Java/hardware/tools/arm/bin/../lib/gcc/arm-none-eabi/4.4.1/thumb2/crtbegin.o
 .ARM.attributes
                0x00000042       0x31 build/../../libmaple/libmaple/adc.o
 .ARM.attributes
                0x00000073       0x31 build/../../libmaple/libmaple/bkp.o
 .ARM.attributes
                0x000000a4       0x31 build/../../libmaple/libmaple/dac.o
 .ARM.attributes
                0x000000d5       0x31 build/../../libmaple/libmaple/dma.o
 .ARM.attributes
                0x00000106       0x31 build/../../libmaple/libmaple/exti.o
 .ARM.attributes
                0x00000137       0x31 build/../../libmaple/libmaple/flash.o
 .ARM.attributes
                0x00000168       0x31 build/../../libmaple/libmaple/fsmc.o
 .ARM.attributes
                0x00000199       0x31 build/../../libmaple/libmaple/gpio.o
 .ARM.attributes
                0x000001ca       0x31 build/../../libmaple/libmaple/iwdg.o
 .ARM.attributes
                0x000001fb       0x31 build/../../libmaple/libmaple/nvic.o
 .ARM.attributes
                0x0000022c       0x31 build/../../libmaple/libmaple/pwr.o
 .ARM.attributes
                0x0000025d       0x31 build/../../libmaple/libmaple/i2c.o
 .ARM.attributes
                0x0000028e       0x31 build/../../libmaple/libmaple/rcc.o
 .ARM.attributes
                0x000002bf       0x31 build/../../libmaple/libmaple/spi.o
 .ARM.attributes
                0x000002f0       0x31 build/../../libmaple/libmaple/syscalls.o
 .ARM.attributes
                0x00000321       0x31 build/../../libmaple/libmaple/systick.o
 .ARM.attributes
                0x00000352       0x31 build/../../libmaple/libmaple/timer.o
 .ARM.attributes
                0x00000383       0x31 build/../../libmaple/libmaple/usart.o
 .ARM.attributes
                0x000003b4       0x31 build/../../libmaple/libmaple/util.o
 .ARM.attributes
                0x000003e5       0x31 build/../../libmaple/libmaple/usb/usb.o
 .ARM.attributes
                0x00000416       0x31 build/../../libmaple/libmaple/usb/usb_reg_map.o
 .ARM.attributes
                0x00000447       0x31 build/../../libmaple/libmaple/usb/usb_cdcacm.o
 .ARM.attributes
                0x00000478       0x31 build/../../libmaple/libmaple/usb/usb_lib/usb_core.o
 .ARM.attributes
                0x000004a9       0x31 build/../../libmaple/libmaple/usb/usb_lib/usb_init.o
 .ARM.attributes
                0x000004da       0x31 build/../../libmaple/libmaple/usb/usb_lib/usb_mem.o
 .ARM.attributes
                0x0000050b       0x31 build/../../libmaple/libmaple/usb/usb_lib/usb_regs.o
 .ARM.attributes
                0x0000053c       0x1b build/../../libmaple/libmaple/exc.o
 .ARM.attributes
                0x00000557       0x31 build/../../libmaple/wirish/wirish_math.o
 .ARM.attributes
                0x00000588       0x31 build/../../libmaple/wirish/Print.o
 .ARM.attributes
                0x000005b9       0x31 build/../../libmaple/wirish/boards.o
 .ARM.attributes
                0x000005ea       0x31 build/../../libmaple/wirish/boards/maple.o
 .ARM.attributes
                0x0000061b       0x31 build/../../libmaple/wirish/boards/maple_mini.o
 .ARM.attributes
                0x0000064c       0x31 build/../../libmaple/wirish/boards/maple_native.o
 .ARM.attributes
                0x0000067d       0x31 build/../../libmaple/wirish/boards/maple_RET6.o
 .ARM.attributes
                0x000006ae       0x31 build/../../libmaple/wirish/boards/olimex_stm32_h103.o
 .ARM.attributes
                0x000006df       0x31 build/../../libmaple/wirish/comm/HardwareSerial.o
 .ARM.attributes
                0x00000710       0x31 build/../../libmaple/wirish/comm/HardwareSPI.o
 .ARM.attributes
                0x00000741       0x31 build/../../libmaple/wirish/HardwareTimer.o
 .ARM.attributes
                0x00000772       0x31 build/../../libmaple/wirish/usb_serial.o
 .ARM.attributes
                0x000007a3       0x31 build/../../libmaple/wirish/cxxabi-compat.o
 .ARM.attributes
                0x000007d4       0x31 build/../../libmaple/wirish/wirish_shift.o
 .ARM.attributes
                0x00000805       0x31 build/../../libmaple/wirish/wirish_analog.o
 .ARM.attributes
                0x00000836       0x31 build/../../libmaple/wirish/wirish_time.o
 .ARM.attributes
                0x00000867       0x31 build/../../libmaple/wirish/pwm.o
 .ARM.attributes
                0x00000898       0x31 build/../../libmaple/wirish/ext_interrupts.o
 .ARM.attributes
                0x000008c9       0x31 build/../../libmaple/wirish/wirish_digital.o
 .ARM.attributes
                0x000008fa       0x31 build/../../libmaple/libraries/Servo/Servo.o
 .ARM.attributes
                0x0000092b       0x31 build/../../libmaple/libraries/LiquidCrystal/LiquidCrystal.o
 .ARM.attributes
                0x0000095c       0x31 build/../../libmaple/libraries/Wire/Wire.o
 .ARM.attributes
                0x0000098d       0x31 build/../../libmaple/libraries/SDfat/Sd2Card.o
 .ARM.attributes
                0x000009be       0x31 build/../../libmaple/libraries/SDfat/SdFile.o
 .ARM.attributes
                0x000009ef       0x31 build/../../libmaple/libraries/SDfat/SdVolume.o
 .ARM.attributes
                0x00000a20       0x31 build/main.o
 .ARM.attributes
                0x00000a51       0x1b /Applications/MapleIDE.app/Contents/Resources/Java/hardware/tools/arm/bin/../lib/gcc/arm-none-eabi/4.4.1/thumb2/libgcc.a(_arm_addsubdf3.o)
 .ARM.attributes
                0x00000a6c       0x1b /Applications/MapleIDE.app/Contents/Resources/Java/hardware/tools/arm/bin/../lib/gcc/arm-none-eabi/4.4.1/thumb2/libgcc.a(_arm_muldivdf3.o)
 .ARM.attributes
                0x00000a87       0x1b /Applications/MapleIDE.app/Contents/Resources/Java/hardware/tools/arm/bin/../lib/gcc/arm-none-eabi/4.4.1/thumb2/libgcc.a(_arm_cmpdf2.o)
 .ARM.attributes
                0x00000aa2       0x1b /Applications/MapleIDE.app/Contents/Resources/Java/hardware/tools/arm/bin/../lib/gcc/arm-none-eabi/4.4.1/thumb2/libgcc.a(_arm_fixdfsi.o)
 .ARM.attributes
                0x00000abd       0x1b /Applications/MapleIDE.app/Contents/Resources/Java/hardware/tools/arm/bin/../lib/gcc/arm-none-eabi/4.4.1/thumb2/libgcc.a(_aeabi_ldivmod.o)
 .ARM.attributes
                0x00000ad8       0x1b /Applications/MapleIDE.app/Contents/Resources/Java/hardware/tools/arm/bin/../lib/gcc/arm-none-eabi/4.4.1/thumb2/libgcc.a(_aeabi_uldivmod.o)
 .ARM.attributes
                0x00000af3       0x29 /Applications/MapleIDE.app/Contents/Resources/Java/hardware/tools/arm/bin/../lib/gcc/arm-none-eabi/4.4.1/thumb2/libgcc.a(_fixdfdi.o)
 .ARM.attributes
                0x00000b1c       0x29 /Applications/MapleIDE.app/Contents/Resources/Java/hardware/tools/arm/bin/../lib/gcc/arm-none-eabi/4.4.1/thumb2/libgcc.a(_fixunsdfdi.o)
 .ARM.attributes
                0x00000b45       0x29 /Applications/MapleIDE.app/Contents/Resources/Java/hardware/tools/arm/bin/../lib/gcc/arm-none-eabi/4.4.1/thumb2/libgcc.a(bpabi.o)
 .ARM.attributes
                0x00000b6e       0x1b /Applications/MapleIDE.app/Contents/Resources/Java/hardware/tools/arm/bin/../lib/gcc/arm-none-eabi/4.4.1/thumb2/libgcc.a(_dvmd_tls.o)
 .ARM.attributes
                0x00000b89       0x1b /Applications/MapleIDE.app/Contents/Resources/Java/hardware/tools/arm/bin/../lib/gcc/arm-none-eabi/4.4.1/thumb2/libgcc.a(_arm_fixunsdfsi.o)
 .ARM.attributes
                0x00000ba4       0x29 /Applications/MapleIDE.app/Contents/Resources/Java/hardware/tools/arm/bin/../lib/gcc/arm-none-eabi/4.4.1/thumb2/libgcc.a(_divdi3.o)
 .ARM.attributes
                0x00000bcd       0x29 /Applications/MapleIDE.app/Contents/Resources/Java/hardware/tools/arm/bin/../lib/gcc/arm-none-eabi/4.4.1/thumb2/libgcc.a(_udivdi3.o)
 .ARM.attributes
                0x00000bf6       0x1b /Applications/MapleIDE.app/Contents/Resources/Java/hardware/tools/arm/bin/../lib/gcc/arm-none-eabi/4.4.1/thumb2/libgcc.a(_udivsi3.o)
 .ARM.attributes
                0x00000c11       0x29 /Applications/MapleIDE.app/Contents/Resources/Java/hardware/tools/arm/bin/../lib/gcc/arm-none-eabi/4.4.1/../../../../arm-none-eabi/lib/thumb2/libc.a(lib_a-atoi.o)
 .ARM.attributes
                0x00000c3a       0x29 /Applications/MapleIDE.app/Contents/Resources/Java/hardware/tools/arm/bin/../lib/gcc/arm-none-eabi/4.4.1/../../../../arm-none-eabi/lib/thumb2/libc.a(lib_a-atoll.o)
 .ARM.attributes
                0x00000c63       0x29 /Applications/MapleIDE.app/Contents/Resources/Java/hardware/tools/arm/bin/../lib/gcc/arm-none-eabi/4.4.1/../../../../arm-none-eabi/lib/thumb2/libc.a(lib_a-errno.o)
 .ARM.attributes
                0x00000c8c       0x29 /Applications/MapleIDE.app/Contents/Resources/Java/hardware/tools/arm/bin/../lib/gcc/arm-none-eabi/4.4.1/../../../../arm-none-eabi/lib/thumb2/libc.a(lib_a-impure.o)
 .ARM.attributes
                0x00000cb5       0x29 /Applications/MapleIDE.app/Contents/Resources/Java/hardware/tools/arm/bin/../lib/gcc/arm-none-eabi/4.4.1/../../../../arm-none-eabi/lib/thumb2/libc.a(lib_a-memcmp.o)
 .ARM.attributes
                0x00000cde       0x29 /Applications/MapleIDE.app/Contents/Resources/Java/hardware/tools/arm/bin/../lib/gcc/arm-none-eabi/4.4.1/../../../../arm-none-eabi/lib/thumb2/libc.a(lib_a-memcpy.o)
 .ARM.attributes
                0x00000d07       0x29 /Applications/MapleIDE.app/Contents/Resources/Java/hardware/tools/arm/bin/../lib/gcc/arm-none-eabi/4.4.1/../../../../arm-none-eabi/lib/thumb2/libc.a(lib_a-memset.o)
 .ARM.attributes
                0x00000d30       0x29 /Applications/MapleIDE.app/Contents/Resources/Java/hardware/tools/arm/bin/../lib/gcc/arm-none-eabi/4.4.1/../../../../arm-none-eabi/lib/thumb2/libc.a(lib_a-rand.o)
 .ARM.attributes
                0x00000d59       0x29 /Applications/MapleIDE.app/Contents/Resources/Java/hardware/tools/arm/bin/../lib/gcc/arm-none-eabi/4.4.1/../../../../arm-none-eabi/lib/thumb2/libc.a(lib_a-snprintf.o)
 .ARM.attributes
                0x00000d82       0x29 /Applications/MapleIDE.app/Contents/Resources/Java/hardware/tools/arm/bin/../lib/gcc/arm-none-eabi/4.4.1/../../../../arm-none-eabi/lib/thumb2/libc.a(lib_a-sprintf.o)
 .ARM.attributes
                0x00000dab       0x29 /Applications/MapleIDE.app/Contents/Resources/Java/hardware/tools/arm/bin/../lib/gcc/arm-none-eabi/4.4.1/../../../../arm-none-eabi/lib/thumb2/libc.a(lib_a-strchr.o)
 .ARM.attributes
                0x00000dd4       0x29 /Applications/MapleIDE.app/Contents/Resources/Java/hardware/tools/arm/bin/../lib/gcc/arm-none-eabi/4.4.1/../../../../arm-none-eabi/lib/thumb2/libc.a(lib_a-strcpy.o)
 .ARM.attributes
                0x00000dfd       0x29 /Applications/MapleIDE.app/Contents/Resources/Java/hardware/tools/arm/bin/../lib/gcc/arm-none-eabi/4.4.1/../../../../arm-none-eabi/lib/thumb2/libc.a(lib_a-strlen.o)
 .ARM.attributes
                0x00000e26       0x29 /Applications/MapleIDE.app/Contents/Resources/Java/hardware/tools/arm/bin/../lib/gcc/arm-none-eabi/4.4.1/../../../../arm-none-eabi/lib/thumb2/libc.a(lib_a-strncmp.o)
 .ARM.attributes
                0x00000e4f       0x29 /Applications/MapleIDE.app/Contents/Resources/Java/hardware/tools/arm/bin/../lib/gcc/arm-none-eabi/4.4.1/../../../../arm-none-eabi/lib/thumb2/libc.a(lib_a-strncpy.o)
 .ARM.attributes
                0x00000e78       0x29 /Applications/MapleIDE.app/Contents/Resources/Java/hardware/tools/arm/bin/../lib/gcc/arm-none-eabi/4.4.1/../../../../arm-none-eabi/lib/thumb2/libc.a(lib_a-strtol.o)
 .ARM.attributes
                0x00000ea1       0x29 /Applications/MapleIDE.app/Contents/Resources/Java/hardware/tools/arm/bin/../lib/gcc/arm-none-eabi/4.4.1/../../../../arm-none-eabi/lib/thumb2/libc.a(lib_a-strtoll.o)
 .ARM.attributes
                0x00000eca       0x29 /Applications/MapleIDE.app/Contents/Resources/Java/hardware/tools/arm/bin/../lib/gcc/arm-none-eabi/4.4.1/../../../../arm-none-eabi/lib/thumb2/libc.a(lib_a-strtoll_r.o)
 .ARM.attributes
                0x00000ef3       0x29 /Applications/MapleIDE.app/Contents/Resources/Java/hardware/tools/arm/bin/../lib/gcc/arm-none-eabi/4.4.1/../../../../arm-none-eabi/lib/thumb2/libc.a(lib_a-svfprintf.o)
 .ARM.attributes
                0x00000f1c       0x29 /Applications/MapleIDE.app/Contents/Resources/Java/hardware/tools/arm/bin/../lib/gcc/arm-none-eabi/4.4.1/../../../../arm-none-eabi/lib/thumb2/libc.a(lib_a-toupper.o)
 .ARM.attributes
                0x00000f45       0x29 /Applications/MapleIDE.app/Contents/Resources/Java/hardware/tools/arm/bin/../lib/gcc/arm-none-eabi/4.4.1/../../../../arm-none-eabi/lib/thumb2/libc.a(lib_a-vsnprintf.o)
 .ARM.attributes
                0x00000f6e       0x29 /Applications/MapleIDE.app/Contents/Resources/Java/hardware/tools/arm/bin/../lib/gcc/arm-none-eabi/4.4.1/../../../../arm-none-eabi/lib/thumb2/libc.a(lib_a-ctype_.o)
 .ARM.attributes
                0x00000f97       0x29 /Applications/MapleIDE.app/Contents/Resources/Java/hardware/tools/arm/bin/../lib/gcc/arm-none-eabi/4.4.1/../../../../arm-none-eabi/lib/thumb2/libc.a(lib_a-dtoa.o)
 .ARM.attributes
                0x00000fc0       0x29 /Applications/MapleIDE.app/Contents/Resources/Java/hardware/tools/arm/bin/../lib/gcc/arm-none-eabi/4.4.1/../../../../arm-none-eabi/lib/thumb2/libc.a(lib_a-freer.o)
 .ARM.attributes
                0x00000fe9       0x29 /Applications/MapleIDE.app/Contents/Resources/Java/hardware/tools/arm/bin/../lib/gcc/arm-none-eabi/4.4.1/../../../../arm-none-eabi/lib/thumb2/libc.a(lib_a-locale.o)
 .ARM.attributes
                0x00001012       0x29 /Applications/MapleIDE.app/Contents/Resources/Java/hardware/tools/arm/bin/../lib/gcc/arm-none-eabi/4.4.1/../../../../arm-none-eabi/lib/thumb2/libc.a(lib_a-malloc.o)
 .ARM.attributes
                0x0000103b       0x29 /Applications/MapleIDE.app/Contents/Resources/Java/hardware/tools/arm/bin/../lib/gcc/arm-none-eabi/4.4.1/../../../../arm-none-eabi/lib/thumb2/libc.a(lib_a-mallocr.o)
 .ARM.attributes
                0x00001064       0x29 /Applications/MapleIDE.app/Contents/Resources/Java/hardware/tools/arm/bin/../lib/gcc/arm-none-eabi/4.4.1/../../../../arm-none-eabi/lib/thumb2/libc.a(lib_a-memchr.o)
 .ARM.attributes
                0x0000108d       0x29 /Applications/MapleIDE.app/Contents/Resources/Java/hardware/tools/arm/bin/../lib/gcc/arm-none-eabi/4.4.1/../../../../arm-none-eabi/lib/thumb2/libc.a(lib_a-memmove.o)
 .ARM.attributes
                0x000010b6       0x29 /Applications/MapleIDE.app/Contents/Resources/Java/hardware/tools/arm/bin/../lib/gcc/arm-none-eabi/4.4.1/../../../../arm-none-eabi/lib/thumb2/libc.a(lib_a-mlock.o)
 .ARM.attributes
                0x000010df       0x29 /Applications/MapleIDE.app/Contents/Resources/Java/hardware/tools/arm/bin/../lib/gcc/arm-none-eabi/4.4.1/../../../../arm-none-eabi/lib/thumb2/libc.a(lib_a-mprec.o)
 .ARM.attributes
                0x00001108       0x29 /Applications/MapleIDE.app/Contents/Resources/Java/hardware/tools/arm/bin/../lib/gcc/arm-none-eabi/4.4.1/../../../../arm-none-eabi/lib/thumb2/libc.a(lib_a-reallocr.o)
 .ARM.attributes
                0x00001131       0x29 /Applications/MapleIDE.app/Contents/Resources/Java/hardware/tools/arm/bin/../lib/gcc/arm-none-eabi/4.4.1/../../../../arm-none-eabi/lib/thumb2/libc.a(lib_a-s_isinfd.o)
 .ARM.attributes
                0x0000115a       0x29 /Applications/MapleIDE.app/Contents/Resources/Java/hardware/tools/arm/bin/../lib/gcc/arm-none-eabi/4.4.1/../../../../arm-none-eabi/lib/thumb2/libc.a(lib_a-s_isnand.o)
 .ARM.attributes
                0x00001183       0x29 /Applications/MapleIDE.app/Contents/Resources/Java/hardware/tools/arm/bin/../lib/gcc/arm-none-eabi/4.4.1/../../../../arm-none-eabi/lib/thumb2/libc.a(lib_a-sbrkr.o)
 .ARM.attributes
                0x000011ac       0x29 /Applications/MapleIDE.app/Contents/Resources/Java/hardware/tools/arm/bin/../lib/gcc/arm-none-eabi/4.4.1/../../../../arm-none-eabi/lib/thumb2/libc.a(lib_a-strcmp.o)
 .ARM.attributes
                0x000011d5       0x29 /Applications/MapleIDE.app/Contents/Resources/Java/hardware/tools/arm/bin/../lib/gcc/arm-none-eabi/4.4.1/../../../../arm-none-eabi/lib/thumb2/libc.a(lib_a-callocr.o)
 .ARM.attributes
                0x000011fe       0x29 /Applications/MapleIDE.app/Contents/Resources/Java/hardware/tools/arm/bin/../lib/gcc/arm-none-eabi/4.4.1/../../../../arm-none-eabi/lib/thumb2/libc.a(lib_a-reent.o)
 .ARM.attributes
                0x00001227       0x1b /Applications/MapleIDE.app/Contents/Resources/Java/hardware/tools/arm/bin/../lib/gcc/arm-none-eabi/4.4.1/thumb2/libgcc.a(_divsi3.o)
 .ARM.attributes
                0x00001242       0x29 /Applications/MapleIDE.app/Contents/Resources/Java/hardware/tools/arm/bin/../lib/gcc/arm-none-eabi/4.4.1/thumb2/crtend.o
 .ARM.attributes
                0x0000126b       0x19 /Applications/MapleIDE.app/Contents/Resources/Java/hardware/tools/arm/bin/../lib/gcc/arm-none-eabi/4.4.1/thumb2/crtn.o
 .ARM.attributes
                0x00001284       0x16 ../../libmaple/support/ld/libcs3_stm32_med_density.a(stm32_vector_table.o)
 .ARM.attributes
                0x0000129a       0x16 ../../libmaple/support/ld/libcs3_stm32_med_density.a(stm32_isrs.o)
 .ARM.attributes
                0x000012b0       0x16 ../../libmaple/support/ld/libcs3_stm32_med_density.a(start.o)
 .ARM.attributes
                0x000012c6       0x31 ../../libmaple/support/ld/libcs3_stm32_med_density.a(start_c.o)
 .ARM.attributes
                0x000012f7       0x29 /Applications/MapleIDE.app/Contents/Resources/Java/hardware/tools/arm/bin/../lib/gcc/arm-none-eabi/4.4.1/../../../../arm-none-eabi/lib/thumb2/libc.a(lib_a-init.o)

/DISCARD/
 *(.note.GNU-stack)
OUTPUT(build/maple_mini.elf elf32-littlearm)

.debug_ranges   0x00000000     0x26c0
 .debug_ranges  0x00000000       0x20 /Applications/MapleIDE.app/Contents/Resources/Java/hardware/tools/arm/bin/../lib/gcc/arm-none-eabi/4.4.1/thumb2/crti.o
 .debug_ranges  0x00000020       0x48 build/../../libmaple/libmaple/adc.o
 .debug_ranges  0x00000068       0x48 build/../../libmaple/libmaple/bkp.o
 .debug_ranges  0x000000b0       0xc8 build/../../libmaple/libmaple/dma.o
 .debug_ranges  0x00000178       0x78 build/../../libmaple/libmaple/exti.o
 .debug_ranges  0x000001f0       0x20 build/../../libmaple/libmaple/flash.o
 .debug_ranges  0x00000210       0x40 build/../../libmaple/libmaple/gpio.o
 .debug_ranges  0x00000250       0x20 build/../../libmaple/libmaple/iwdg.o
 .debug_ranges  0x00000270       0x30 build/../../libmaple/libmaple/nvic.o
 .debug_ranges  0x000002a0       0x18 build/../../libmaple/libmaple/pwr.o
 .debug_ranges  0x000002b8      0x140 build/../../libmaple/libmaple/i2c.o
 .debug_ranges  0x000003f8       0x40 build/../../libmaple/libmaple/rcc.o
 .debug_ranges  0x00000438       0xd8 build/../../libmaple/libmaple/spi.o
 .debug_ranges  0x00000510       0x78 build/../../libmaple/libmaple/syscalls.o
 .debug_ranges  0x00000588       0x38 build/../../libmaple/libmaple/systick.o
 .debug_ranges  0x000005c0      0x178 build/../../libmaple/libmaple/timer.o
 .debug_ranges  0x00000738       0xe8 build/../../libmaple/libmaple/usart.o
 .debug_ranges  0x00000820       0x80 build/../../libmaple/libmaple/util.o
 .debug_ranges  0x000008a0       0xf8 build/../../libmaple/libmaple/usb/usb.o
 .debug_ranges  0x00000998       0x70 build/../../libmaple/libmaple/usb/usb_reg_map.o
 .debug_ranges  0x00000a08      0x160 build/../../libmaple/libmaple/usb/usb_cdcacm.o
 .debug_ranges  0x00000b68       0xb0 build/../../libmaple/libmaple/usb/usb_lib/usb_core.o
 .debug_ranges  0x00000c18       0x18 build/../../libmaple/libmaple/usb/usb_lib/usb_init.o
 .debug_ranges  0x00000c30       0x20 build/../../libmaple/libmaple/usb/usb_lib/usb_mem.o
 .debug_ranges  0x00000c50      0x218 build/../../libmaple/libmaple/usb/usb_lib/usb_regs.o
 .debug_ranges  0x00000e68       0x40 build/../../libmaple/wirish/wirish_math.o
 .debug_ranges  0x00000ea8      0x128 build/../../libmaple/wirish/Print.o
 .debug_ranges  0x00000fd0       0xe0 build/../../libmaple/wirish/boards.o
 .debug_ranges  0x000010b0       0x50 build/../../libmaple/wirish/boards/maple_mini.o
 .debug_ranges  0x00001100       0x90 build/../../libmaple/wirish/comm/HardwareSerial.o
 .debug_ranges  0x00001190      0x170 build/../../libmaple/wirish/comm/HardwareSPI.o
 .debug_ranges  0x00001300      0x1b0 build/../../libmaple/wirish/HardwareTimer.o
 .debug_ranges  0x000014b0       0xc0 build/../../libmaple/wirish/usb_serial.o
 .debug_ranges  0x00001570       0x18 build/../../libmaple/wirish/cxxabi-compat.o
 .debug_ranges  0x00001588       0x18 build/../../libmaple/wirish/wirish_shift.o
 .debug_ranges  0x000015a0       0x38 build/../../libmaple/wirish/wirish_analog.o
 .debug_ranges  0x000015d8       0x20 build/../../libmaple/wirish/wirish_time.o
 .debug_ranges  0x000015f8       0x18 build/../../libmaple/wirish/pwm.o
 .debug_ranges  0x00001610       0x40 build/../../libmaple/wirish/ext_interrupts.o
 .debug_ranges  0x00001650       0x98 build/../../libmaple/wirish/wirish_digital.o
 .debug_ranges  0x000016e8       0xc0 build/../../libmaple/libraries/Servo/Servo.o
 .debug_ranges  0x000017a8      0x158 build/../../libmaple/libraries/LiquidCrystal/LiquidCrystal.o
 .debug_ranges  0x00001900      0x110 build/../../libmaple/libraries/Wire/Wire.o
 .debug_ranges  0x00001a10      0x1e8 build/../../libmaple/libraries/SDfat/Sd2Card.o
 .debug_ranges  0x00001bf8      0x398 build/../../libmaple/libraries/SDfat/SdFile.o
 .debug_ranges  0x00001f90       0xe0 build/../../libmaple/libraries/SDfat/SdVolume.o
 .debug_ranges  0x00002070      0x498 build/main.o
 .debug_ranges  0x00002508       0xd0 /Applications/MapleIDE.app/Contents/Resources/Java/hardware/tools/arm/bin/../lib/gcc/arm-none-eabi/4.4.1/thumb2/libgcc.a(_divdi3.o)
 .debug_ranges  0x000025d8       0xc8 /Applications/MapleIDE.app/Contents/Resources/Java/hardware/tools/arm/bin/../lib/gcc/arm-none-eabi/4.4.1/thumb2/libgcc.a(_udivdi3.o)
 .debug_ranges  0x000026a0       0x20 /Applications/MapleIDE.app/Contents/Resources/Java/hardware/tools/arm/bin/../lib/gcc/arm-none-eabi/4.4.1/thumb2/crtn.o
